

Microchip Technology PIC LITE Macro Assembler V1.12 build 49521 
                                                                                               Wed Oct 08 16:15:03 2014

HI-TECH Software Omniscient Code Generator (Lite mode) build 49521
     1  0000                     opt subtitle "HI-TECH Software Omniscient Code Generator (Lite mode) build 49521"
     2                           opt subtitle "HI-TECH Software Omniscient Code Generator (Lite mode) build 49521"
     3                           
     4                           opt pagewidth 120
     5                           
     6                           	opt lm
     7                           
     8                           	processor	16F689
     9                           clrc	macro
    10  0000                     	endm
    11                           opt subtitle "HI-TECH Software Omniscient Code Generator (Lite mode) build 49521"
    12                           
    13  0000                     	endm
    14                           opt subtitle "HI-TECH Software Omniscient Code Generator (Lite mode) build 49521"
    15                           
    16  0000                     	endm
    17                           opt subtitle "HI-TECH Software Omniscient Code Generator (Lite mode) build 49521"
    18                           
    19  0000                     	endm
    20                           opt subtitle "HI-TECH Software Omniscient Code Generator (Lite mode) build 49521"
    21                           
    22  0000                     	endm
    23                           opt subtitle "HI-TECH Software Omniscient Code Generator (Lite mode) build 49521"
    24                           
    25  0000                     	endm
    26                           opt subtitle "HI-TECH Software Omniscient Code Generator (Lite mode) build 49521"
    27                           
    28  0000                     	endm
    29                           opt subtitle "HI-TECH Software Omniscient Code Generator (Lite mode) build 49521"
    30                           
    31  0000                     	endm
    32  0000                     indf	equ	0
    33  0000                     indf0	equ	0
    34  0002                     pc	equ	2
    35  0002                     pcl	equ	2
    36  0003                     status	equ	3
    37  0004                     fsr	equ	4
    38  0004                     fsr0	equ	4
    39  0001                     c	equ	1
    40  0000                     z	equ	0
    41  000A                     pclath	equ	10
    42                           opt subtitle "HI-TECH Software Omniscient Code Generator (Lite mode) build 49521"
    43  0000                     INDF equ 00h ;# 
    44                           opt subtitle "HI-TECH Software Omniscient Code Generator (Lite mode) build 49521"
    45  0001                     TMR0 equ 01h ;# 
    46                           opt subtitle "HI-TECH Software Omniscient Code Generator (Lite mode) build 49521"
    47  0002                     PCL equ 02h ;# 
    48                           opt subtitle "HI-TECH Software Omniscient Code Generator (Lite mode) build 49521"
    49  0003                     STATUS equ 03h ;# 
    50                           opt subtitle "HI-TECH Software Omniscient Code Generator (Lite mode) build 49521"
    51  0004                     FSR equ 04h ;# 
    52                           opt subtitle "HI-TECH Software Omniscient Code Generator (Lite mode) build 49521"
    53  0005                     PORTA equ 05h ;# 
    54                           opt subtitle "HI-TECH Software Omniscient Code Generator (Lite mode) build 49521"
    55  0006                     PORTB equ 06h ;# 
    56                           opt subtitle "HI-TECH Software Omniscient Code Generator (Lite mode) build 49521"
    57  0007                     PORTC equ 07h ;# 
    58                           opt subtitle "HI-TECH Software Omniscient Code Generator (Lite mode) build 49521"
    59  000A                     PCLATH equ 0Ah ;# 
    60                           opt subtitle "HI-TECH Software Omniscient Code Generator (Lite mode) build 49521"
    61  000B                     INTCON equ 0Bh ;# 
    62                           opt subtitle "HI-TECH Software Omniscient Code Generator (Lite mode) build 49521"
    63  000C                     PIR1 equ 0Ch ;# 
    64                           opt subtitle "HI-TECH Software Omniscient Code Generator (Lite mode) build 49521"
    65  000D                     PIR2 equ 0Dh ;# 
    66                           opt subtitle "HI-TECH Software Omniscient Code Generator (Lite mode) build 49521"
    67  000E                     TMR1 equ 0Eh ;# 
    68                           opt subtitle "HI-TECH Software Omniscient Code Generator (Lite mode) build 49521"
    69  000E                     TMR1L equ 0Eh ;# 
    70                           opt subtitle "HI-TECH Software Omniscient Code Generator (Lite mode) build 49521"
    71  000F                     TMR1H equ 0Fh ;# 
    72                           opt subtitle "HI-TECH Software Omniscient Code Generator (Lite mode) build 49521"
    73  0010                     T1CON equ 010h ;# 
    74                           opt subtitle "HI-TECH Software Omniscient Code Generator (Lite mode) build 49521"
    75  0013                     SSPBUF equ 013h ;# 
    76                           opt subtitle "HI-TECH Software Omniscient Code Generator (Lite mode) build 49521"
    77  0014                     SSPCON equ 014h ;# 
    78                           opt subtitle "HI-TECH Software Omniscient Code Generator (Lite mode) build 49521"
    79  0018                     RCSTA equ 018h ;# 
    80                           opt subtitle "HI-TECH Software Omniscient Code Generator (Lite mode) build 49521"
    81  0019                     TXREG equ 019h ;# 
    82                           opt subtitle "HI-TECH Software Omniscient Code Generator (Lite mode) build 49521"
    83  001A                     RCREG equ 01Ah ;# 
    84                           opt subtitle "HI-TECH Software Omniscient Code Generator (Lite mode) build 49521"
    85  001E                     ADRESH equ 01Eh ;# 
    86                           opt subtitle "HI-TECH Software Omniscient Code Generator (Lite mode) build 49521"
    87  001F                     ADCON0 equ 01Fh ;# 
    88                           opt subtitle "HI-TECH Software Omniscient Code Generator (Lite mode) build 49521"
    89  0081                     OPTION_REG equ 081h ;# 
    90                           opt subtitle "HI-TECH Software Omniscient Code Generator (Lite mode) build 49521"
    91  0085                     TRISA equ 085h ;# 
    92                           opt subtitle "HI-TECH Software Omniscient Code Generator (Lite mode) build 49521"
    93  0086                     TRISB equ 086h ;# 
    94                           opt subtitle "HI-TECH Software Omniscient Code Generator (Lite mode) build 49521"
    95  0087                     TRISC equ 087h ;# 
    96                           opt subtitle "HI-TECH Software Omniscient Code Generator (Lite mode) build 49521"
    97  008C                     PIE1 equ 08Ch ;# 
    98                           opt subtitle "HI-TECH Software Omniscient Code Generator (Lite mode) build 49521"
    99  008D                     PIE2 equ 08Dh ;# 
   100                           opt subtitle "HI-TECH Software Omniscient Code Generator (Lite mode) build 49521"
   101  008E                     PCON equ 08Eh ;# 
   102                           opt subtitle "HI-TECH Software Omniscient Code Generator (Lite mode) build 49521"
   103  008F                     OSCCON equ 08Fh ;# 
   104                           opt subtitle "HI-TECH Software Omniscient Code Generator (Lite mode) build 49521"
   105  0090                     OSCTUNE equ 090h ;# 
   106                           opt subtitle "HI-TECH Software Omniscient Code Generator (Lite mode) build 49521"
   107  0093                     SSPADD equ 093h ;# 
   108                           opt subtitle "HI-TECH Software Omniscient Code Generator (Lite mode) build 49521"
   109  0093                     SSPMSK equ 093h ;# 
   110                           opt subtitle "HI-TECH Software Omniscient Code Generator (Lite mode) build 49521"
   111  0093                     MSK equ 093h ;# 
   112                           opt subtitle "HI-TECH Software Omniscient Code Generator (Lite mode) build 49521"
   113  0094                     SSPSTAT equ 094h ;# 
   114                           opt subtitle "HI-TECH Software Omniscient Code Generator (Lite mode) build 49521"
   115  0095                     WPUA equ 095h ;# 
   116                           opt subtitle "HI-TECH Software Omniscient Code Generator (Lite mode) build 49521"
   117  0095                     WPU equ 095h ;# 
   118                           opt subtitle "HI-TECH Software Omniscient Code Generator (Lite mode) build 49521"
   119  0096                     IOCA equ 096h ;# 
   120                           opt subtitle "HI-TECH Software Omniscient Code Generator (Lite mode) build 49521"
   121  0096                     IOC equ 096h ;# 
   122                           opt subtitle "HI-TECH Software Omniscient Code Generator (Lite mode) build 49521"
   123  0097                     WDTCON equ 097h ;# 
   124                           opt subtitle "HI-TECH Software Omniscient Code Generator (Lite mode) build 49521"
   125  0098                     TXSTA equ 098h ;# 
   126                           opt subtitle "HI-TECH Software Omniscient Code Generator (Lite mode) build 49521"
   127  0099                     SPBRG equ 099h ;# 
   128                           opt subtitle "HI-TECH Software Omniscient Code Generator (Lite mode) build 49521"
   129  009A                     SPBRGH equ 09Ah ;# 
   130                           opt subtitle "HI-TECH Software Omniscient Code Generator (Lite mode) build 49521"
   131  009B                     BAUDCTL equ 09Bh ;# 
   132                           opt subtitle "HI-TECH Software Omniscient Code Generator (Lite mode) build 49521"
   133  009E                     ADRESL equ 09Eh ;# 
   134                           opt subtitle "HI-TECH Software Omniscient Code Generator (Lite mode) build 49521"
   135  009F                     ADCON1 equ 09Fh ;# 
   136                           opt subtitle "HI-TECH Software Omniscient Code Generator (Lite mode) build 49521"
   137  010C                     EEDAT equ 010Ch ;# 
   138                           opt subtitle "HI-TECH Software Omniscient Code Generator (Lite mode) build 49521"
   139  010C                     EEDATA equ 010Ch ;# 
   140                           opt subtitle "HI-TECH Software Omniscient Code Generator (Lite mode) build 49521"
   141  010D                     EEADR equ 010Dh ;# 
   142                           opt subtitle "HI-TECH Software Omniscient Code Generator (Lite mode) build 49521"
   143  010E                     EEDATH equ 010Eh ;# 
   144                           opt subtitle "HI-TECH Software Omniscient Code Generator (Lite mode) build 49521"
   145  010F                     EEADRH equ 010Fh ;# 
   146                           opt subtitle "HI-TECH Software Omniscient Code Generator (Lite mode) build 49521"
   147  0115                     WPUB equ 0115h ;# 
   148                           opt subtitle "HI-TECH Software Omniscient Code Generator (Lite mode) build 49521"
   149  0116                     IOCB equ 0116h ;# 
   150                           opt subtitle "HI-TECH Software Omniscient Code Generator (Lite mode) build 49521"
   151  0118                     VRCON equ 0118h ;# 
   152                           opt subtitle "HI-TECH Software Omniscient Code Generator (Lite mode) build 49521"
   153  0119                     CM1CON0 equ 0119h ;# 
   154                           opt subtitle "HI-TECH Software Omniscient Code Generator (Lite mode) build 49521"
   155  011A                     CM2CON0 equ 011Ah ;# 
   156                           opt subtitle "HI-TECH Software Omniscient Code Generator (Lite mode) build 49521"
   157  011B                     CM2CON1 equ 011Bh ;# 
   158                           opt subtitle "HI-TECH Software Omniscient Code Generator (Lite mode) build 49521"
   159  011E                     ANSEL equ 011Eh ;# 
   160                           opt subtitle "HI-TECH Software Omniscient Code Generator (Lite mode) build 49521"
   161  011F                     ANSELH equ 011Fh ;# 
   162                           opt subtitle "HI-TECH Software Omniscient Code Generator (Lite mode) build 49521"
   163  018C                     EECON1 equ 018Ch ;# 
   164                           opt subtitle "HI-TECH Software Omniscient Code Generator (Lite mode) build 49521"
   165  018D                     EECON2 equ 018Dh ;# 
   166                           opt subtitle "HI-TECH Software Omniscient Code Generator (Lite mode) build 49521"
   167  019E                     SRCON equ 019Eh ;# 
   168                           opt subtitle "HI-TECH Software Omniscient Code Generator (Lite mode) build 49521"
   169  0000                     INDF equ 00h ;# 
   170                           opt subtitle "HI-TECH Software Omniscient Code Generator (Lite mode) build 49521"
   171  0001                     TMR0 equ 01h ;# 
   172                           opt subtitle "HI-TECH Software Omniscient Code Generator (Lite mode) build 49521"
   173  0002                     PCL equ 02h ;# 
   174                           opt subtitle "HI-TECH Software Omniscient Code Generator (Lite mode) build 49521"
   175  0003                     STATUS equ 03h ;# 
   176                           opt subtitle "HI-TECH Software Omniscient Code Generator (Lite mode) build 49521"
   177  0004                     FSR equ 04h ;# 
   178                           opt subtitle "HI-TECH Software Omniscient Code Generator (Lite mode) build 49521"
   179  0005                     PORTA equ 05h ;# 
   180                           opt subtitle "HI-TECH Software Omniscient Code Generator (Lite mode) build 49521"
   181  0006                     PORTB equ 06h ;# 
   182                           opt subtitle "HI-TECH Software Omniscient Code Generator (Lite mode) build 49521"
   183  0007                     PORTC equ 07h ;# 
   184                           opt subtitle "HI-TECH Software Omniscient Code Generator (Lite mode) build 49521"
   185  000A                     PCLATH equ 0Ah ;# 
   186                           opt subtitle "HI-TECH Software Omniscient Code Generator (Lite mode) build 49521"
   187  000B                     INTCON equ 0Bh ;# 
   188                           opt subtitle "HI-TECH Software Omniscient Code Generator (Lite mode) build 49521"
   189  000C                     PIR1 equ 0Ch ;# 
   190                           opt subtitle "HI-TECH Software Omniscient Code Generator (Lite mode) build 49521"
   191  000D                     PIR2 equ 0Dh ;# 
   192                           opt subtitle "HI-TECH Software Omniscient Code Generator (Lite mode) build 49521"
   193  000E                     TMR1 equ 0Eh ;# 
   194                           opt subtitle "HI-TECH Software Omniscient Code Generator (Lite mode) build 49521"
   195  000E                     TMR1L equ 0Eh ;# 
   196                           opt subtitle "HI-TECH Software Omniscient Code Generator (Lite mode) build 49521"
   197  000F                     TMR1H equ 0Fh ;# 
   198                           opt subtitle "HI-TECH Software Omniscient Code Generator (Lite mode) build 49521"
   199  0010                     T1CON equ 010h ;# 
   200                           opt subtitle "HI-TECH Software Omniscient Code Generator (Lite mode) build 49521"
   201  0013                     SSPBUF equ 013h ;# 
   202                           opt subtitle "HI-TECH Software Omniscient Code Generator (Lite mode) build 49521"
   203  0014                     SSPCON equ 014h ;# 
   204                           opt subtitle "HI-TECH Software Omniscient Code Generator (Lite mode) build 49521"
   205  0018                     RCSTA equ 018h ;# 
   206                           opt subtitle "HI-TECH Software Omniscient Code Generator (Lite mode) build 49521"
   207  0019                     TXREG equ 019h ;# 
   208                           opt subtitle "HI-TECH Software Omniscient Code Generator (Lite mode) build 49521"
   209  001A                     RCREG equ 01Ah ;# 
   210                           opt subtitle "HI-TECH Software Omniscient Code Generator (Lite mode) build 49521"
   211  001E                     ADRESH equ 01Eh ;# 
   212                           opt subtitle "HI-TECH Software Omniscient Code Generator (Lite mode) build 49521"
   213  001F                     ADCON0 equ 01Fh ;# 
   214                           opt subtitle "HI-TECH Software Omniscient Code Generator (Lite mode) build 49521"
   215  0081                     OPTION_REG equ 081h ;# 
   216                           opt subtitle "HI-TECH Software Omniscient Code Generator (Lite mode) build 49521"
   217  0085                     TRISA equ 085h ;# 
   218                           opt subtitle "HI-TECH Software Omniscient Code Generator (Lite mode) build 49521"
   219  0086                     TRISB equ 086h ;# 
   220                           opt subtitle "HI-TECH Software Omniscient Code Generator (Lite mode) build 49521"
   221  0087                     TRISC equ 087h ;# 
   222                           opt subtitle "HI-TECH Software Omniscient Code Generator (Lite mode) build 49521"
   223  008C                     PIE1 equ 08Ch ;# 
   224                           opt subtitle "HI-TECH Software Omniscient Code Generator (Lite mode) build 49521"
   225  008D                     PIE2 equ 08Dh ;# 
   226                           opt subtitle "HI-TECH Software Omniscient Code Generator (Lite mode) build 49521"
   227  008E                     PCON equ 08Eh ;# 
   228                           opt subtitle "HI-TECH Software Omniscient Code Generator (Lite mode) build 49521"
   229  008F                     OSCCON equ 08Fh ;# 
   230                           opt subtitle "HI-TECH Software Omniscient Code Generator (Lite mode) build 49521"
   231  0090                     OSCTUNE equ 090h ;# 
   232                           opt subtitle "HI-TECH Software Omniscient Code Generator (Lite mode) build 49521"
   233  0093                     SSPADD equ 093h ;# 
   234                           opt subtitle "HI-TECH Software Omniscient Code Generator (Lite mode) build 49521"
   235  0093                     SSPMSK equ 093h ;# 
   236                           opt subtitle "HI-TECH Software Omniscient Code Generator (Lite mode) build 49521"
   237  0093                     MSK equ 093h ;# 
   238                           opt subtitle "HI-TECH Software Omniscient Code Generator (Lite mode) build 49521"
   239  0094                     SSPSTAT equ 094h ;# 
   240                           opt subtitle "HI-TECH Software Omniscient Code Generator (Lite mode) build 49521"
   241  0095                     WPUA equ 095h ;# 
   242                           opt subtitle "HI-TECH Software Omniscient Code Generator (Lite mode) build 49521"
   243  0095                     WPU equ 095h ;# 
   244                           opt subtitle "HI-TECH Software Omniscient Code Generator (Lite mode) build 49521"
   245  0096                     IOCA equ 096h ;# 
   246                           opt subtitle "HI-TECH Software Omniscient Code Generator (Lite mode) build 49521"
   247  0096                     IOC equ 096h ;# 
   248                           opt subtitle "HI-TECH Software Omniscient Code Generator (Lite mode) build 49521"
   249  0097                     WDTCON equ 097h ;# 
   250                           opt subtitle "HI-TECH Software Omniscient Code Generator (Lite mode) build 49521"
   251  0098                     TXSTA equ 098h ;# 
   252                           opt subtitle "HI-TECH Software Omniscient Code Generator (Lite mode) build 49521"
   253  0099                     SPBRG equ 099h ;# 
   254                           opt subtitle "HI-TECH Software Omniscient Code Generator (Lite mode) build 49521"
   255  009A                     SPBRGH equ 09Ah ;# 
   256                           opt subtitle "HI-TECH Software Omniscient Code Generator (Lite mode) build 49521"
   257  009B                     BAUDCTL equ 09Bh ;# 
   258                           opt subtitle "HI-TECH Software Omniscient Code Generator (Lite mode) build 49521"
   259  009E                     ADRESL equ 09Eh ;# 
   260                           opt subtitle "HI-TECH Software Omniscient Code Generator (Lite mode) build 49521"
   261  009F                     ADCON1 equ 09Fh ;# 
   262                           opt subtitle "HI-TECH Software Omniscient Code Generator (Lite mode) build 49521"
   263  010C                     EEDAT equ 010Ch ;# 
   264                           opt subtitle "HI-TECH Software Omniscient Code Generator (Lite mode) build 49521"
   265  010C                     EEDATA equ 010Ch ;# 
   266                           opt subtitle "HI-TECH Software Omniscient Code Generator (Lite mode) build 49521"
   267  010D                     EEADR equ 010Dh ;# 
   268                           opt subtitle "HI-TECH Software Omniscient Code Generator (Lite mode) build 49521"
   269  010E                     EEDATH equ 010Eh ;# 
   270                           opt subtitle "HI-TECH Software Omniscient Code Generator (Lite mode) build 49521"
   271  010F                     EEADRH equ 010Fh ;# 
   272                           opt subtitle "HI-TECH Software Omniscient Code Generator (Lite mode) build 49521"
   273  0115                     WPUB equ 0115h ;# 
   274                           opt subtitle "HI-TECH Software Omniscient Code Generator (Lite mode) build 49521"
   275  0116                     IOCB equ 0116h ;# 
   276                           opt subtitle "HI-TECH Software Omniscient Code Generator (Lite mode) build 49521"
   277  0118                     VRCON equ 0118h ;# 
   278                           opt subtitle "HI-TECH Software Omniscient Code Generator (Lite mode) build 49521"
   279  0119                     CM1CON0 equ 0119h ;# 
   280                           opt subtitle "HI-TECH Software Omniscient Code Generator (Lite mode) build 49521"
   281  011A                     CM2CON0 equ 011Ah ;# 
   282                           opt subtitle "HI-TECH Software Omniscient Code Generator (Lite mode) build 49521"
   283  011B                     CM2CON1 equ 011Bh ;# 
   284                           opt subtitle "HI-TECH Software Omniscient Code Generator (Lite mode) build 49521"
   285  011E                     ANSEL equ 011Eh ;# 
   286                           opt subtitle "HI-TECH Software Omniscient Code Generator (Lite mode) build 49521"
   287  011F                     ANSELH equ 011Fh ;# 
   288                           opt subtitle "HI-TECH Software Omniscient Code Generator (Lite mode) build 49521"
   289  018C                     EECON1 equ 018Ch ;# 
   290                           opt subtitle "HI-TECH Software Omniscient Code Generator (Lite mode) build 49521"
   291  018D                     EECON2 equ 018Dh ;# 
   292                           opt subtitle "HI-TECH Software Omniscient Code Generator (Lite mode) build 49521"
   293  019E                     SRCON equ 019Eh ;# 
   294                           opt subtitle "HI-TECH Software Omniscient Code Generator (Lite mode) build 49521"
   295  0000                     INDF equ 00h ;# 
   296                           opt subtitle "HI-TECH Software Omniscient Code Generator (Lite mode) build 49521"
   297  0001                     TMR0 equ 01h ;# 
   298                           opt subtitle "HI-TECH Software Omniscient Code Generator (Lite mode) build 49521"
   299  0002                     PCL equ 02h ;# 
   300                           opt subtitle "HI-TECH Software Omniscient Code Generator (Lite mode) build 49521"
   301  0003                     STATUS equ 03h ;# 
   302                           opt subtitle "HI-TECH Software Omniscient Code Generator (Lite mode) build 49521"
   303  0004                     FSR equ 04h ;# 
   304                           opt subtitle "HI-TECH Software Omniscient Code Generator (Lite mode) build 49521"
   305  0005                     PORTA equ 05h ;# 
   306                           opt subtitle "HI-TECH Software Omniscient Code Generator (Lite mode) build 49521"
   307  0006                     PORTB equ 06h ;# 
   308                           opt subtitle "HI-TECH Software Omniscient Code Generator (Lite mode) build 49521"
   309  0007                     PORTC equ 07h ;# 
   310                           opt subtitle "HI-TECH Software Omniscient Code Generator (Lite mode) build 49521"
   311  000A                     PCLATH equ 0Ah ;# 
   312                           opt subtitle "HI-TECH Software Omniscient Code Generator (Lite mode) build 49521"
   313  000B                     INTCON equ 0Bh ;# 
   314                           opt subtitle "HI-TECH Software Omniscient Code Generator (Lite mode) build 49521"
   315  000C                     PIR1 equ 0Ch ;# 
   316                           opt subtitle "HI-TECH Software Omniscient Code Generator (Lite mode) build 49521"
   317  000D                     PIR2 equ 0Dh ;# 
   318                           opt subtitle "HI-TECH Software Omniscient Code Generator (Lite mode) build 49521"
   319  000E                     TMR1 equ 0Eh ;# 
   320                           opt subtitle "HI-TECH Software Omniscient Code Generator (Lite mode) build 49521"
   321  000E                     TMR1L equ 0Eh ;# 
   322                           opt subtitle "HI-TECH Software Omniscient Code Generator (Lite mode) build 49521"
   323  000F                     TMR1H equ 0Fh ;# 
   324                           opt subtitle "HI-TECH Software Omniscient Code Generator (Lite mode) build 49521"
   325  0010                     T1CON equ 010h ;# 
   326                           opt subtitle "HI-TECH Software Omniscient Code Generator (Lite mode) build 49521"
   327  0013                     SSPBUF equ 013h ;# 
   328                           opt subtitle "HI-TECH Software Omniscient Code Generator (Lite mode) build 49521"
   329  0014                     SSPCON equ 014h ;# 
   330                           opt subtitle "HI-TECH Software Omniscient Code Generator (Lite mode) build 49521"
   331  0018                     RCSTA equ 018h ;# 
   332                           opt subtitle "HI-TECH Software Omniscient Code Generator (Lite mode) build 49521"
   333  0019                     TXREG equ 019h ;# 
   334                           opt subtitle "HI-TECH Software Omniscient Code Generator (Lite mode) build 49521"
   335  001A                     RCREG equ 01Ah ;# 
   336                           opt subtitle "HI-TECH Software Omniscient Code Generator (Lite mode) build 49521"
   337  001E                     ADRESH equ 01Eh ;# 
   338                           opt subtitle "HI-TECH Software Omniscient Code Generator (Lite mode) build 49521"
   339  001F                     ADCON0 equ 01Fh ;# 
   340                           opt subtitle "HI-TECH Software Omniscient Code Generator (Lite mode) build 49521"
   341  0081                     OPTION_REG equ 081h ;# 
   342                           opt subtitle "HI-TECH Software Omniscient Code Generator (Lite mode) build 49521"
   343  0085                     TRISA equ 085h ;# 
   344                           opt subtitle "HI-TECH Software Omniscient Code Generator (Lite mode) build 49521"
   345  0086                     TRISB equ 086h ;# 
   346                           opt subtitle "HI-TECH Software Omniscient Code Generator (Lite mode) build 49521"
   347  0087                     TRISC equ 087h ;# 
   348                           opt subtitle "HI-TECH Software Omniscient Code Generator (Lite mode) build 49521"
   349  008C                     PIE1 equ 08Ch ;# 
   350                           opt subtitle "HI-TECH Software Omniscient Code Generator (Lite mode) build 49521"
   351  008D                     PIE2 equ 08Dh ;# 
   352                           opt subtitle "HI-TECH Software Omniscient Code Generator (Lite mode) build 49521"
   353  008E                     PCON equ 08Eh ;# 
   354                           opt subtitle "HI-TECH Software Omniscient Code Generator (Lite mode) build 49521"
   355  008F                     OSCCON equ 08Fh ;# 
   356                           opt subtitle "HI-TECH Software Omniscient Code Generator (Lite mode) build 49521"
   357  0090                     OSCTUNE equ 090h ;# 
   358                           opt subtitle "HI-TECH Software Omniscient Code Generator (Lite mode) build 49521"
   359  0093                     SSPADD equ 093h ;# 
   360                           opt subtitle "HI-TECH Software Omniscient Code Generator (Lite mode) build 49521"
   361  0093                     SSPMSK equ 093h ;# 
   362                           opt subtitle "HI-TECH Software Omniscient Code Generator (Lite mode) build 49521"
   363  0093                     MSK equ 093h ;# 
   364                           opt subtitle "HI-TECH Software Omniscient Code Generator (Lite mode) build 49521"
   365  0094                     SSPSTAT equ 094h ;# 
   366                           opt subtitle "HI-TECH Software Omniscient Code Generator (Lite mode) build 49521"
   367  0095                     WPUA equ 095h ;# 
   368                           opt subtitle "HI-TECH Software Omniscient Code Generator (Lite mode) build 49521"
   369  0095                     WPU equ 095h ;# 
   370                           opt subtitle "HI-TECH Software Omniscient Code Generator (Lite mode) build 49521"
   371  0096                     IOCA equ 096h ;# 
   372                           opt subtitle "HI-TECH Software Omniscient Code Generator (Lite mode) build 49521"
   373  0096                     IOC equ 096h ;# 
   374                           opt subtitle "HI-TECH Software Omniscient Code Generator (Lite mode) build 49521"
   375  0097                     WDTCON equ 097h ;# 
   376                           opt subtitle "HI-TECH Software Omniscient Code Generator (Lite mode) build 49521"
   377  0098                     TXSTA equ 098h ;# 
   378                           opt subtitle "HI-TECH Software Omniscient Code Generator (Lite mode) build 49521"
   379  0099                     SPBRG equ 099h ;# 
   380                           opt subtitle "HI-TECH Software Omniscient Code Generator (Lite mode) build 49521"
   381  009A                     SPBRGH equ 09Ah ;# 
   382                           opt subtitle "HI-TECH Software Omniscient Code Generator (Lite mode) build 49521"
   383  009B                     BAUDCTL equ 09Bh ;# 
   384                           opt subtitle "HI-TECH Software Omniscient Code Generator (Lite mode) build 49521"
   385  009E                     ADRESL equ 09Eh ;# 
   386                           opt subtitle "HI-TECH Software Omniscient Code Generator (Lite mode) build 49521"
   387  009F                     ADCON1 equ 09Fh ;# 
   388                           opt subtitle "HI-TECH Software Omniscient Code Generator (Lite mode) build 49521"
   389  010C                     EEDAT equ 010Ch ;# 
   390                           opt subtitle "HI-TECH Software Omniscient Code Generator (Lite mode) build 49521"
   391  010C                     EEDATA equ 010Ch ;# 
   392                           opt subtitle "HI-TECH Software Omniscient Code Generator (Lite mode) build 49521"
   393  010D                     EEADR equ 010Dh ;# 
   394                           opt subtitle "HI-TECH Software Omniscient Code Generator (Lite mode) build 49521"
   395  010E                     EEDATH equ 010Eh ;# 
   396                           opt subtitle "HI-TECH Software Omniscient Code Generator (Lite mode) build 49521"
   397  010F                     EEADRH equ 010Fh ;# 
   398                           opt subtitle "HI-TECH Software Omniscient Code Generator (Lite mode) build 49521"
   399  0115                     WPUB equ 0115h ;# 
   400                           opt subtitle "HI-TECH Software Omniscient Code Generator (Lite mode) build 49521"
   401  0116                     IOCB equ 0116h ;# 
   402                           opt subtitle "HI-TECH Software Omniscient Code Generator (Lite mode) build 49521"
   403  0118                     VRCON equ 0118h ;# 
   404                           opt subtitle "HI-TECH Software Omniscient Code Generator (Lite mode) build 49521"
   405  0119                     CM1CON0 equ 0119h ;# 
   406                           opt subtitle "HI-TECH Software Omniscient Code Generator (Lite mode) build 49521"
   407  011A                     CM2CON0 equ 011Ah ;# 
   408                           opt subtitle "HI-TECH Software Omniscient Code Generator (Lite mode) build 49521"
   409  011B                     CM2CON1 equ 011Bh ;# 
   410                           opt subtitle "HI-TECH Software Omniscient Code Generator (Lite mode) build 49521"
   411  011E                     ANSEL equ 011Eh ;# 
   412                           opt subtitle "HI-TECH Software Omniscient Code Generator (Lite mode) build 49521"
   413  011F                     ANSELH equ 011Fh ;# 
   414                           opt subtitle "HI-TECH Software Omniscient Code Generator (Lite mode) build 49521"
   415  018C                     EECON1 equ 018Ch ;# 
   416                           opt subtitle "HI-TECH Software Omniscient Code Generator (Lite mode) build 49521"
   417  018D                     EECON2 equ 018Dh ;# 
   418                           opt subtitle "HI-TECH Software Omniscient Code Generator (Lite mode) build 49521"
   419  019E                     SRCON equ 019Eh ;# 
   420                           opt subtitle "HI-TECH Software Omniscient Code Generator (Lite mode) build 49521"
   421                           
   422                           opt pagewidth 120
   423                           
   424                           	opt lm
   425                           
   426                           	processor	16F689
   427                           clrc	macro
   428                           	bcf	3,0
   429                           	endm
   430                           clrz	macro
   431                           	bcf	3,2
   432                           	endm
   433                           setc	macro
   434                           	bsf	3,0
   435                           	endm
   436                           setz	macro
   437                           	bsf	3,2
   438                           	endm
   439                           skipc	macro
   440                           	btfss	3,0
   441                           	endm
   442                           skipz	macro
   443                           	btfss	3,2
   444                           	endm
   445                           skipnc	macro
   446                           	btfsc	3,0
   447                           	endm
   448  0002                     __pstrings:
   449                           opt subtitle "HI-TECH Software Omniscient Code Generator (Lite mode) build 49521"
   450  0002                     stringtab:
   451                           opt subtitle "HI-TECH Software Omniscient Code Generator (Lite mode) build 49521"
   452  0002                     __stringtab:
   453                           opt subtitle "HI-TECH Software Omniscient Code Generator (Lite mode) build 49521"
   454  0002                     stringcode:stringdir:
      + 0002                     stringdir:	
   455  0002  3000               movlw high(stringdir)
   456  0003  008A               movwf pclath
   457  0004  0804               movf fsr,w
   458  0005  0A84               incf fsr
   459  0006  0782               	addwf pc
   460  0007                     __stringbase:
   461  0007  3400               	retlw	0
   462                           opt subtitle "HI-TECH Software Omniscient Code Generator (Lite mode) build 49521"
   463                           
   464  0008                     __end_of__stringtab:
   465                           opt subtitle "HI-TECH Software Omniscient Code Generator (Lite mode) build 49521"
   466                           
   467  0008                     _mIpu:
   468  0008  3401               	retlw	01h
   469  0009  3400               	retlw	0
   470  000A  3400               	retlw	0
   471  000B  3400               	retlw	0
   472                           opt subtitle "HI-TECH Software Omniscient Code Generator (Lite mode) build 49521"
   473                           
   474  000C                     __end_of_mIpu:
   475                           opt subtitle "HI-TECH Software Omniscient Code Generator (Lite mode) build 49521"
   476                           
   477                           opt pagewidth 120
   478                           
   479  000C                     _mType:
   480  000C  3404               	retlw	04h
   481                           opt subtitle "HI-TECH Software Omniscient Code Generator (Lite mode) build 49521"
   482  000D                     __end_of_mType:
   483                           opt subtitle "HI-TECH Software Omniscient Code Generator (Lite mode) build 49521"
   484                           
   485                           opt pagewidth 120
   486                           
   487                           	opt lm
   488                           
   489  000B                     _INTCON	set	0xB
   490                           opt subtitle "HI-TECH Software Omniscient Code Generator (Lite mode) build 49521"
   491  000D                     _PIR2bits	set	0xD
   492                           opt subtitle "HI-TECH Software Omniscient Code Generator (Lite mode) build 49521"
   493  0010                     _T1CON	set	0x10
   494                           opt subtitle "HI-TECH Software Omniscient Code Generator (Lite mode) build 49521"
   495  000F                     _TMR1H	set	0xF
   496                           opt subtitle "HI-TECH Software Omniscient Code Generator (Lite mode) build 49521"
   497  000E                     _TMR1L	set	0xE
   498                           opt subtitle "HI-TECH Software Omniscient Code Generator (Lite mode) build 49521"
   499  0028                     _RA0	set	0x28
   500                           opt subtitle "HI-TECH Software Omniscient Code Generator (Lite mode) build 49521"
   501  0034                     _RB4	set	0x34
   502                           opt subtitle "HI-TECH Software Omniscient Code Generator (Lite mode) build 49521"
   503  0036                     _RB6	set	0x36
   504                           opt subtitle "HI-TECH Software Omniscient Code Generator (Lite mode) build 49521"
   505  0037                     _RB7	set	0x37
   506                           opt subtitle "HI-TECH Software Omniscient Code Generator (Lite mode) build 49521"
   507  003B                     _RC3	set	0x3B
   508                           opt subtitle "HI-TECH Software Omniscient Code Generator (Lite mode) build 49521"
   509  003C                     _RC4	set	0x3C
   510                           opt subtitle "HI-TECH Software Omniscient Code Generator (Lite mode) build 49521"
   511  003D                     _RC5	set	0x3D
   512                           opt subtitle "HI-TECH Software Omniscient Code Generator (Lite mode) build 49521"
   513  003E                     _RC6	set	0x3E
   514                           opt subtitle "HI-TECH Software Omniscient Code Generator (Lite mode) build 49521"
   515  008F                     _OSCCON	set	0x8F
   516                           opt subtitle "HI-TECH Software Omniscient Code Generator (Lite mode) build 49521"
   517  0085                     _TRISA	set	0x85
   518                           opt subtitle "HI-TECH Software Omniscient Code Generator (Lite mode) build 49521"
   519  0086                     _TRISB	set	0x86
   520                           opt subtitle "HI-TECH Software Omniscient Code Generator (Lite mode) build 49521"
   521  0087                     _TRISC	set	0x87
   522                           opt subtitle "HI-TECH Software Omniscient Code Generator (Lite mode) build 49521"
   523  043B                     _TRISC3	set	0x43B
   524                           opt subtitle "HI-TECH Software Omniscient Code Generator (Lite mode) build 49521"
   525  040F                     _nRABPU	set	0x40F
   526                           opt subtitle "HI-TECH Software Omniscient Code Generator (Lite mode) build 49521"
   527  011E                     _ANSEL	set	0x11E
   528                           opt subtitle "HI-TECH Software Omniscient Code Generator (Lite mode) build 49521"
   529  011F                     _ANSELH	set	0x11F
   530                           opt subtitle "HI-TECH Software Omniscient Code Generator (Lite mode) build 49521"
   531  010D                     _EEADR	set	0x10D
   532                           opt subtitle "HI-TECH Software Omniscient Code Generator (Lite mode) build 49521"
   533  010C                     _EEDATA	set	0x10C
   534                           opt subtitle "HI-TECH Software Omniscient Code Generator (Lite mode) build 49521"
   535  08AC                     _WPUB4	set	0x8AC
   536                           opt subtitle "HI-TECH Software Omniscient Code Generator (Lite mode) build 49521"
   537  018C                     _EECON1bits	set	0x18C
   538                           opt subtitle "HI-TECH Software Omniscient Code Generator (Lite mode) build 49521"
   539  018D                     _EECON2	set	0x18D
   540                           opt subtitle "HI-TECH Software Omniscient Code Generator (Lite mode) build 49521"
   541                           
   542  0000                     __CFG_BOREN$OFF equ 0x0
   543                           opt subtitle "HI-TECH Software Omniscient Code Generator (Lite mode) build 49521"
   544  0000                     __CFG_IESO$OFF equ 0x0
   545                           opt subtitle "HI-TECH Software Omniscient Code Generator (Lite mode) build 49521"
   546  0000                     __CFG_FOSC$INTRCIO equ 0x0
   547                           opt subtitle "HI-TECH Software Omniscient Code Generator (Lite mode) build 49521"
   548  0000                     __CFG_FCMEN$OFF equ 0x0
   549                           opt subtitle "HI-TECH Software Omniscient Code Generator (Lite mode) build 49521"
   550  0000                     __CFG_WDTE$OFF equ 0x0
   551                           opt subtitle "HI-TECH Software Omniscient Code Generator (Lite mode) build 49521"
   552  0000                     __CFG_PWRTE$ON equ 0x0
   553                           opt subtitle "HI-TECH Software Omniscient Code Generator (Lite mode) build 49521"
   554                           
   555                           opt pagewidth 120
   556                           
   557  0409                     start_initialization:
   558                           opt subtitle "HI-TECH Software Omniscient Code Generator (Lite mode) build 49521"
   559                           
   560  0409                     __initialization:
   561                           opt subtitle "HI-TECH Software Omniscient Code Generator (Lite mode) build 49521"
   562                           
   563  007D                     __pbssCOMMON:
   564  007D                     _gcnt:
   565  007D                            ds      1
   566                           opt subtitle "HI-TECH Software Omniscient Code Generator (Lite mode) build 49521"
   567                           
   568                           opt pagewidth 120
   569  002F                     __pbssBANK0:
   570  002F                     _DHTData:
   571  002F                            ds      5
   572                           opt subtitle "HI-TECH Software Omniscient Code Generator (Lite mode) build 49521"
   573  0034                     _datapacket:
   574  0034                            ds      8
   575                           opt subtitle "HI-TECH Software Omniscient Code Generator (Lite mode) build 49521"
   576                           
   577                           opt pagewidth 120
   578  0409  01FD               	clrf	((__pbssCOMMON)+0)&07Fh
   579                           opt subtitle "HI-TECH Software Omniscient Code Generator (Lite mode) build 49521"
   580                           
   581  040A  01AF               	clrf	((__pbssBANK0)+0)&07Fh
   582  040B  01B0               	clrf	((__pbssBANK0)+1)&07Fh
   583  040C  01B1               	clrf	((__pbssBANK0)+2)&07Fh
   584  040D  01B2               	clrf	((__pbssBANK0)+3)&07Fh
   585  040E  01B3               	clrf	((__pbssBANK0)+4)&07Fh
   586  040F  01B4               	clrf	((__pbssBANK0)+5)&07Fh
   587  0410  01B5               	clrf	((__pbssBANK0)+6)&07Fh
   588  0411  01B6               	clrf	((__pbssBANK0)+7)&07Fh
   589  0412  01B7               	clrf	((__pbssBANK0)+8)&07Fh
   590  0413  01B8               	clrf	((__pbssBANK0)+9)&07Fh
   591  0414  01B9               	clrf	((__pbssBANK0)+10)&07Fh
   592  0415  01BA               	clrf	((__pbssBANK0)+11)&07Fh
   593  0416  01BB               	clrf	((__pbssBANK0)+12)&07Fh
   594                           opt subtitle "HI-TECH Software Omniscient Code Generator (Lite mode) build 49521"
   595                           
   596                           opt pagewidth 120
   597                           
   598                           	opt lm
   599  0417                     end_of_initialization:
   600  0417                     __end_of__initialization:clrf status
      + 0417  0183               	clrf	3
   601  0418  118A  2F2A         ljmp _main	;jump to C main() function
   602                           opt subtitle "HI-TECH Software Omniscient Code Generator (Lite mode) build 49521"
   603                           
   604  0070                     __pcstackCOMMON:
   605  0070                     ?_readDHT:	; 0 bytes @ 0x0
   606  0070                     ??_readDHT:	; 0 bytes @ 0x0
   607  0070                     ?_ConfigureOscillator:	; 0 bytes @ 0x0
   608  0070                     ??_ConfigureOscillator:	; 0 bytes @ 0x0
   609  0070                     ?_InitApp:	; 0 bytes @ 0x0
   610  0070                     ??_InitApp:	; 0 bytes @ 0x0
   611  0070                     ?_InitRadio:	; 0 bytes @ 0x0
   612  0070                     ?_TXData:	; 0 bytes @ 0x0
   613                           opt subtitle "HI-TECH Software Omniscient Code Generator (Lite mode) build 49521"
   614  0070                     ?_EEPROM_putc:	; 0 bytes @ 0x0
   615  0070                     ??_EEPROM_getc:	; 0 bytes @ 0x0
   616  0070                     ?_StartTX:	; 0 bytes @ 0x0
   617  0070                     ?_SendFSK:	; 0 bytes @ 0x0
   618  0070                     ?_SendManFSK:	; 0 bytes @ 0x0
   619  0070                     ?_WaitFSK:	; 0 bytes @ 0x0
   620  0070                     ??_WaitFSK:	; 0 bytes @ 0x0
   621  0070                     ?_StopTX:	; 0 bytes @ 0x0
   622  0070                     ?_PairTX:	; 0 bytes @ 0x0
   623                           opt subtitle "HI-TECH Software Omniscient Code Generator (Lite mode) build 49521"
   624  0070                     ?_SendCTRL:	; 0 bytes @ 0x0
   625  0070                     ?_Sendbit:	; 0 bytes @ 0x0
   626  0070                     ??_Sendbit:	; 0 bytes @ 0x0
   627  0070                     ?_getValue:	; 0 bytes @ 0x0
   628  0070                     ?_main:	; 0 bytes @ 0x0
   629  0070                     ?_EEPROM_getc:	; 1 bytes @ 0x0
   630  0070                     ?_GetAddr:	; 2 bytes @ 0x0
   631                           opt subtitle "HI-TECH Software Omniscient Code Generator (Lite mode) build 49521"
   632  0070                     ?___lwdiv:	; 2 bytes @ 0x0
   633                           opt subtitle "HI-TECH Software Omniscient Code Generator (Lite mode) build 49521"
   634  0070                     Sendbit@data:	; 1 bytes @ 0x0
   635                           opt subtitle "HI-TECH Software Omniscient Code Generator (Lite mode) build 49521"
   636  0070                     EEPROM_putc@data:	; 1 bytes @ 0x0
   637                           opt subtitle "HI-TECH Software Omniscient Code Generator (Lite mode) build 49521"
   638  0070                     EEPROM_getc@address:	; 1 bytes @ 0x0
   639                           opt subtitle "HI-TECH Software Omniscient Code Generator (Lite mode) build 49521"
   640  0070                     ConfigureOscillator@speed:	; 1 bytes @ 0x0
   641                           opt subtitle "HI-TECH Software Omniscient Code Generator (Lite mode) build 49521"
   642  0070                     SendCTRL@tosend:	; 2 bytes @ 0x0
   643                           opt subtitle "HI-TECH Software Omniscient Code Generator (Lite mode) build 49521"
   644  0070                     ___lwdiv@divisor:	; 2 bytes @ 0x0
   645  0070                     	ds	1
   646  0071                     ??_GetAddr:	; 0 bytes @ 0x1
   647  0071                     ??_EEPROM_putc:	; 0 bytes @ 0x1
   648  0071                     ??_SendFSK:	; 0 bytes @ 0x1
   649  0071                     ??_SendManFSK:	; 0 bytes @ 0x1
   650  0071                     	ds	1
   651  0072                     ??_SendCTRL:	; 0 bytes @ 0x2
   652                           opt subtitle "HI-TECH Software Omniscient Code Generator (Lite mode) build 49521"
   653  0072                     readDHT@i:	; 1 bytes @ 0x2
   654                           opt subtitle "HI-TECH Software Omniscient Code Generator (Lite mode) build 49521"
   655  0072                     GetAddr@txBuff:	; 1 bytes @ 0x2
   656                           opt subtitle "HI-TECH Software Omniscient Code Generator (Lite mode) build 49521"
   657  0072                     SendManFSK@data:	; 1 bytes @ 0x2
   658                           opt subtitle "HI-TECH Software Omniscient Code Generator (Lite mode) build 49521"
   659  0072                     SendFSK@data:	; 1 bytes @ 0x2
   660                           opt subtitle "HI-TECH Software Omniscient Code Generator (Lite mode) build 49521"
   661  0072                     EEPROM_putc@address:	; 1 bytes @ 0x2
   662                           opt subtitle "HI-TECH Software Omniscient Code Generator (Lite mode) build 49521"
   663  0072                     ___lwdiv@dividend:	; 2 bytes @ 0x2
   664  0072                     	ds	1
   665                           opt subtitle "HI-TECH Software Omniscient Code Generator (Lite mode) build 49521"
   666  0073                     readDHT@k:	; 1 bytes @ 0x3
   667                           opt subtitle "HI-TECH Software Omniscient Code Generator (Lite mode) build 49521"
   668  0073                     SendCTRL@cnt:	; 1 bytes @ 0x3
   669                           opt subtitle "HI-TECH Software Omniscient Code Generator (Lite mode) build 49521"
   670  0073                     SendManFSK@cnt:	; 1 bytes @ 0x3
   671                           opt subtitle "HI-TECH Software Omniscient Code Generator (Lite mode) build 49521"
   672  0073                     SendFSK@cnt:	; 1 bytes @ 0x3
   673                           opt subtitle "HI-TECH Software Omniscient Code Generator (Lite mode) build 49521"
   674  0073                     EEPROM_putc@INTCON_SAVE:	; 1 bytes @ 0x3
   675  0073                     	ds	1
   676  0074                     ??_InitRadio:	; 0 bytes @ 0x4
   677  0074                     ??_TXData:	; 0 bytes @ 0x4
   678  0074                     ??_StartTX:	; 0 bytes @ 0x4
   679  0074                     ??_StopTX:	; 0 bytes @ 0x4
   680  0074                     ??___lwdiv:	; 0 bytes @ 0x4
   681                           opt subtitle "HI-TECH Software Omniscient Code Generator (Lite mode) build 49521"
   682  0074                     ?_GenAddr:	; 2 bytes @ 0x4
   683                           opt subtitle "HI-TECH Software Omniscient Code Generator (Lite mode) build 49521"
   684  0074                     GenAddr@type:	; 1 bytes @ 0x4
   685  0074                     	ds	1
   686  0075                     ??_GenAddr:	; 0 bytes @ 0x5
   687                           opt subtitle "HI-TECH Software Omniscient Code Generator (Lite mode) build 49521"
   688  0075                     TXData@txBuff:	; 1 bytes @ 0x5
   689                           opt subtitle "HI-TECH Software Omniscient Code Generator (Lite mode) build 49521"
   690  0075                     ___lwdiv@quotient:	; 2 bytes @ 0x5
   691  0075                     	ds	1
   692                           opt subtitle "HI-TECH Software Omniscient Code Generator (Lite mode) build 49521"
   693  0076                     GenAddr@txBuff:	; 1 bytes @ 0x6
   694                           opt subtitle "HI-TECH Software Omniscient Code Generator (Lite mode) build 49521"
   695  0076                     TXData@cnt:	; 1 bytes @ 0x6
   696  0076                     	ds	1
   697  0077                     ??_PairTX:	; 0 bytes @ 0x7
   698                           opt subtitle "HI-TECH Software Omniscient Code Generator (Lite mode) build 49521"
   699  0077                     ___lwdiv@counter:	; 1 bytes @ 0x7
   700  0077                     	ds	1
   701  0078                     ??_getValue:	; 0 bytes @ 0x8
   702  0078                     	ds	2
   703                           opt subtitle "HI-TECH Software Omniscient Code Generator (Lite mode) build 49521"
   704  007A                     PairTX@cnt:	; 1 bytes @ 0xA
   705  007A                     	ds	1
   706                           opt subtitle "HI-TECH Software Omniscient Code Generator (Lite mode) build 49521"
   707  007B                     PairTX@txBuff:	; 1 bytes @ 0xB
   708                           opt subtitle "HI-TECH Software Omniscient Code Generator (Lite mode) build 49521"
   709  007B                     getValue@Humi:	; 2 bytes @ 0xB
   710  007B                     	ds	1
   711                           opt subtitle "HI-TECH Software Omniscient Code Generator (Lite mode) build 49521"
   712  007C                     doPair@txBuff:	; 1 bytes @ 0xC
   713  007C                     	ds	1
   714                           opt subtitle "HI-TECH Software Omniscient Code Generator (Lite mode) build 49521"
   715                           
   716  0020                     __pcstackBANK0:
   717                           opt subtitle "HI-TECH Software Omniscient Code Generator (Lite mode) build 49521"
   718  0020                     ?_doPair:	; 0 bytes @ 0x0
   719                           opt subtitle "HI-TECH Software Omniscient Code Generator (Lite mode) build 49521"
   720  0020                     doPair@mType:	; 1 bytes @ 0x0
   721  0020                     	ds	1
   722                           opt subtitle "HI-TECH Software Omniscient Code Generator (Lite mode) build 49521"
   723  0021                     doPair@ipu:	; 4 bytes @ 0x1
   724  0021                     	ds	4
   725  0025                     ??_doPair:	; 0 bytes @ 0x5
   726  0025                     	ds	5
   727  002A                     ??_main:	; 0 bytes @ 0xA
   728  002A                     	ds	3
   729                           opt subtitle "HI-TECH Software Omniscient Code Generator (Lite mode) build 49521"
   730  002D                     main@debounce:	; 1 bytes @ 0xD
   731  002D                     	ds	1
   732                           opt subtitle "HI-TECH Software Omniscient Code Generator (Lite mode) build 49521"
   733  002E                     main@cnt:	; 1 bytes @ 0xE
   734  002E                     	ds	1
   735                           opt subtitle "HI-TECH Software Omniscient Code Generator (Lite mode) build 49521"
   736                           
   737                           opt pagewidth 120
   738                           
   739                           	opt lm
   740                           
   741                           	processor	16F689
   742                           clrc	macro
   743                           	bcf	3,0
   744                           	endm
   745                           clrz	macro
   746                           	bcf	3,2
   747                           	endm
   748                           setc	macro
   749                           	bsf	3,0
   750                           	endm
   751                           setz	macro
   752                           	bsf	3,2
   753                           	endm
   754                           skipc	macro
   755                           	btfss	3,0
   756                           	endm
   757                           skipz	macro
   758                           	btfss	3,2
   759                           	endm
   760                           skipnc	macro
   761                           	btfsc	3,0
   762                           	endm
   763                           skipnz	macro
   764                           	btfsc	3,2
   765                           	endm
   766                           indf	equ	0
   767                           indf0	equ	0
   768                           pc	equ	2
   769                           pcl	equ	2
   770                           status	equ	3
   771                           fsr	equ	4
   772                           fsr0	equ	4
   773                           c	equ	1
   774                           z	equ	0
   775                           pclath	equ	10
   776                           # 46 "C:\Program Files (x86)\Microchip\xc8\v1.12\include\pic16f689.h"
   777                           INDF equ 00h ;# 
   778                           # 52 "C:\Program Files (x86)\Microchip\xc8\v1.12\include\pic16f689.h"
   779                           TMR0 equ 01h ;# 
   780                           # 58 "C:\Program Files (x86)\Microchip\xc8\v1.12\include\pic16f689.h"
   781                           PCL equ 02h ;# 
   782                           # 64 "C:\Program Files (x86)\Microchip\xc8\v1.12\include\pic16f689.h"
   783                           STATUS equ 03h ;# 
   784                           # 151 "C:\Program Files (x86)\Microchip\xc8\v1.12\include\pic16f689.h"
   785                           FSR equ 04h ;# 
   786                           # 157 "C:\Program Files (x86)\Microchip\xc8\v1.12\include\pic16f689.h"
   787                           PORTA equ 05h ;# 
   788                           # 206 "C:\Program Files (x86)\Microchip\xc8\v1.12\include\pic16f689.h"
   789                           PORTB equ 06h ;# 
   790                           # 244 "C:\Program Files (x86)\Microchip\xc8\v1.12\include\pic16f689.h"
   791                           PORTC equ 07h ;# 
   792                           # 305 "C:\Program Files (x86)\Microchip\xc8\v1.12\include\pic16f689.h"
   793                           PCLATH equ 0Ah ;# 
   794                           # 311 "C:\Program Files (x86)\Microchip\xc8\v1.12\include\pic16f689.h"
   795                           INTCON equ 0Bh ;# 
   796                           # 372 "C:\Program Files (x86)\Microchip\xc8\v1.12\include\pic16f689.h"
   797                           PIR1 equ 0Ch ;# 
   798                           # 424 "C:\Program Files (x86)\Microchip\xc8\v1.12\include\pic16f689.h"
   799                           PIR2 equ 0Dh ;# 
   800                           # 462 "C:\Program Files (x86)\Microchip\xc8\v1.12\include\pic16f689.h"
   801                           TMR1 equ 0Eh ;# 
   802                           # 468 "C:\Program Files (x86)\Microchip\xc8\v1.12\include\pic16f689.h"
   803                           TMR1L equ 0Eh ;# 
   804                           # 474 "C:\Program Files (x86)\Microchip\xc8\v1.12\include\pic16f689.h"
   805                           TMR1H equ 0Fh ;# 
   806                           # 480 "C:\Program Files (x86)\Microchip\xc8\v1.12\include\pic16f689.h"
   807                           T1CON equ 010h ;# 
   808                           # 550 "C:\Program Files (x86)\Microchip\xc8\v1.12\include\pic16f689.h"
   809                           SSPBUF equ 013h ;# 
   810                           # 556 "C:\Program Files (x86)\Microchip\xc8\v1.12\include\pic16f689.h"
   811                           SSPCON equ 014h ;# 
   812                           # 625 "C:\Program Files (x86)\Microchip\xc8\v1.12\include\pic16f689.h"
   813                           RCSTA equ 018h ;# 
   814                           # 686 "C:\Program Files (x86)\Microchip\xc8\v1.12\include\pic16f689.h"
   815                           TXREG equ 019h ;# 
   816                           # 692 "C:\Program Files (x86)\Microchip\xc8\v1.12\include\pic16f689.h"
   817                           RCREG equ 01Ah ;# 
   818                           # 698 "C:\Program Files (x86)\Microchip\xc8\v1.12\include\pic16f689.h"
   819                           ADRESH equ 01Eh ;# 
   820                           # 704 "C:\Program Files (x86)\Microchip\xc8\v1.12\include\pic16f689.h"
   821                           ADCON0 equ 01Fh ;# 
   822                           # 798 "C:\Program Files (x86)\Microchip\xc8\v1.12\include\pic16f689.h"
   823                           OPTION_REG equ 081h ;# 
   824                           # 867 "C:\Program Files (x86)\Microchip\xc8\v1.12\include\pic16f689.h"
   825                           TRISA equ 085h ;# 
   826                           # 916 "C:\Program Files (x86)\Microchip\xc8\v1.12\include\pic16f689.h"
   827                           TRISB equ 086h ;# 
   828                           # 954 "C:\Program Files (x86)\Microchip\xc8\v1.12\include\pic16f689.h"
   829                           TRISC equ 087h ;# 
   830                           # 1015 "C:\Program Files (x86)\Microchip\xc8\v1.12\include\pic16f689.h"
   831                           PIE1 equ 08Ch ;# 
   832                           # 1067 "C:\Program Files (x86)\Microchip\xc8\v1.12\include\pic16f689.h"
   833                           PIE2 equ 08Dh ;# 
   834                           # 1105 "C:\Program Files (x86)\Microchip\xc8\v1.12\include\pic16f689.h"
   835                           PCON equ 08Eh ;# 
   836                           # 1143 "C:\Program Files (x86)\Microchip\xc8\v1.12\include\pic16f689.h"
   837                           OSCCON equ 08Fh ;# 
   838                           # 1207 "C:\Program Files (x86)\Microchip\xc8\v1.12\include\pic16f689.h"
   839                           OSCTUNE equ 090h ;# 
   840                           # 1258 "C:\Program Files (x86)\Microchip\xc8\v1.12\include\pic16f689.h"
   841                           SSPADD equ 093h ;# 
   842                           # 1264 "C:\Program Files (x86)\Microchip\xc8\v1.12\include\pic16f689.h"
   843                           SSPMSK equ 093h ;# 
   844                           # 1269 "C:\Program Files (x86)\Microchip\xc8\v1.12\include\pic16f689.h"
   845                           MSK equ 093h ;# 
   846                           # 1385 "C:\Program Files (x86)\Microchip\xc8\v1.12\include\pic16f689.h"
   847                           SSPSTAT equ 094h ;# 
   848                           # 1553 "C:\Program Files (x86)\Microchip\xc8\v1.12\include\pic16f689.h"
   849                           WPUA equ 095h ;# 
   850                           # 1558 "C:\Program Files (x86)\Microchip\xc8\v1.12\include\pic16f689.h"
   851                           WPU equ 095h ;# 
   852                           # 1706 "C:\Program Files (x86)\Microchip\xc8\v1.12\include\pic16f689.h"
   853                           IOCA equ 096h ;# 
   854                           # 1711 "C:\Program Files (x86)\Microchip\xc8\v1.12\include\pic16f689.h"
   855                           IOC equ 096h ;# 
   856                           # 1879 "C:\Program Files (x86)\Microchip\xc8\v1.12\include\pic16f689.h"
   857                           WDTCON equ 097h ;# 
   858                           # 1931 "C:\Program Files (x86)\Microchip\xc8\v1.12\include\pic16f689.h"
   859                           TXSTA equ 098h ;# 
   860                           # 2001 "C:\Program Files (x86)\Microchip\xc8\v1.12\include\pic16f689.h"
   861                           SPBRG equ 099h ;# 
   862                           # 2062 "C:\Program Files (x86)\Microchip\xc8\v1.12\include\pic16f689.h"
   863                           SPBRGH equ 09Ah ;# 
   864                           # 2123 "C:\Program Files (x86)\Microchip\xc8\v1.12\include\pic16f689.h"
   865                           BAUDCTL equ 09Bh ;# 
   866                           # 2174 "C:\Program Files (x86)\Microchip\xc8\v1.12\include\pic16f689.h"
   867                           ADRESL equ 09Eh ;# 
   868                           # 2180 "C:\Program Files (x86)\Microchip\xc8\v1.12\include\pic16f689.h"
   869                           ADCON1 equ 09Fh ;# 
   870                           # 2221 "C:\Program Files (x86)\Microchip\xc8\v1.12\include\pic16f689.h"
   871                           EEDAT equ 010Ch ;# 
   872                           # 2226 "C:\Program Files (x86)\Microchip\xc8\v1.12\include\pic16f689.h"
   873                           EEDATA equ 010Ch ;# 
   874                           # 2232 "C:\Program Files (x86)\Microchip\xc8\v1.12\include\pic16f689.h"
   875                           EEADR equ 010Dh ;# 
   876                           # 2238 "C:\Program Files (x86)\Microchip\xc8\v1.12\include\pic16f689.h"
   877                           EEDATH equ 010Eh ;# 
   878                           # 2244 "C:\Program Files (x86)\Microchip\xc8\v1.12\include\pic16f689.h"
   879                           EEADRH equ 010Fh ;# 
   880                           # 2250 "C:\Program Files (x86)\Microchip\xc8\v1.12\include\pic16f689.h"
   881                           WPUB equ 0115h ;# 
   882                           # 2297 "C:\Program Files (x86)\Microchip\xc8\v1.12\include\pic16f689.h"
   883                           IOCB equ 0116h ;# 
   884                           # 2335 "C:\Program Files (x86)\Microchip\xc8\v1.12\include\pic16f689.h"
   885                           VRCON equ 0118h ;# 
   886                           # 2404 "C:\Program Files (x86)\Microchip\xc8\v1.12\include\pic16f689.h"
   887                           CM1CON0 equ 0119h ;# 
   888                           # 2468 "C:\Program Files (x86)\Microchip\xc8\v1.12\include\pic16f689.h"
   889                           CM2CON0 equ 011Ah ;# 
   890                           # 2532 "C:\Program Files (x86)\Microchip\xc8\v1.12\include\pic16f689.h"
   891                           CM2CON1 equ 011Bh ;# 
   892                           # 2570 "C:\Program Files (x86)\Microchip\xc8\v1.12\include\pic16f689.h"
   893                           ANSEL equ 011Eh ;# 
   894                           # 2631 "C:\Program Files (x86)\Microchip\xc8\v1.12\include\pic16f689.h"
   895                           ANSELH equ 011Fh ;# 
   896                           # 2668 "C:\Program Files (x86)\Microchip\xc8\v1.12\include\pic16f689.h"
   897                           EECON1 equ 018Ch ;# 
   898                           # 2712 "C:\Program Files (x86)\Microchip\xc8\v1.12\include\pic16f689.h"
   899                           EECON2 equ 018Dh ;# 
   900                           # 2718 "C:\Program Files (x86)\Microchip\xc8\v1.12\include\pic16f689.h"
   901                           SRCON equ 019Eh ;# 
   902                           # 46 "C:\Program Files (x86)\Microchip\xc8\v1.12\include\pic16f689.h"
   903                           INDF equ 00h ;# 
   904                           # 52 "C:\Program Files (x86)\Microchip\xc8\v1.12\include\pic16f689.h"
   905                           TMR0 equ 01h ;# 
   906                           # 58 "C:\Program Files (x86)\Microchip\xc8\v1.12\include\pic16f689.h"
   907                           PCL equ 02h ;# 
   908                           # 64 "C:\Program Files (x86)\Microchip\xc8\v1.12\include\pic16f689.h"
   909                           STATUS equ 03h ;# 
   910                           # 151 "C:\Program Files (x86)\Microchip\xc8\v1.12\include\pic16f689.h"
   911                           FSR equ 04h ;# 
   912                           # 157 "C:\Program Files (x86)\Microchip\xc8\v1.12\include\pic16f689.h"
   913                           PORTA equ 05h ;# 
   914                           # 206 "C:\Program Files (x86)\Microchip\xc8\v1.12\include\pic16f689.h"
   915                           PORTB equ 06h ;# 
   916                           # 244 "C:\Program Files (x86)\Microchip\xc8\v1.12\include\pic16f689.h"
   917                           PORTC equ 07h ;# 
   918                           # 305 "C:\Program Files (x86)\Microchip\xc8\v1.12\include\pic16f689.h"
   919                           PCLATH equ 0Ah ;# 
   920                           # 311 "C:\Program Files (x86)\Microchip\xc8\v1.12\include\pic16f689.h"
   921                           INTCON equ 0Bh ;# 
   922                           # 372 "C:\Program Files (x86)\Microchip\xc8\v1.12\include\pic16f689.h"
   923                           PIR1 equ 0Ch ;# 
   924                           # 424 "C:\Program Files (x86)\Microchip\xc8\v1.12\include\pic16f689.h"
   925                           PIR2 equ 0Dh ;# 
   926                           # 462 "C:\Program Files (x86)\Microchip\xc8\v1.12\include\pic16f689.h"
   927                           TMR1 equ 0Eh ;# 
   928                           # 468 "C:\Program Files (x86)\Microchip\xc8\v1.12\include\pic16f689.h"
   929                           TMR1L equ 0Eh ;# 
   930                           # 474 "C:\Program Files (x86)\Microchip\xc8\v1.12\include\pic16f689.h"
   931                           TMR1H equ 0Fh ;# 
   932                           # 480 "C:\Program Files (x86)\Microchip\xc8\v1.12\include\pic16f689.h"
   933                           T1CON equ 010h ;# 
   934                           # 550 "C:\Program Files (x86)\Microchip\xc8\v1.12\include\pic16f689.h"
   935                           SSPBUF equ 013h ;# 
   936                           # 556 "C:\Program Files (x86)\Microchip\xc8\v1.12\include\pic16f689.h"
   937                           SSPCON equ 014h ;# 
   938                           # 625 "C:\Program Files (x86)\Microchip\xc8\v1.12\include\pic16f689.h"
   939                           RCSTA equ 018h ;# 
   940                           # 686 "C:\Program Files (x86)\Microchip\xc8\v1.12\include\pic16f689.h"
   941                           TXREG equ 019h ;# 
   942                           # 692 "C:\Program Files (x86)\Microchip\xc8\v1.12\include\pic16f689.h"
   943                           RCREG equ 01Ah ;# 
   944                           # 698 "C:\Program Files (x86)\Microchip\xc8\v1.12\include\pic16f689.h"
   945                           ADRESH equ 01Eh ;# 
   946                           # 704 "C:\Program Files (x86)\Microchip\xc8\v1.12\include\pic16f689.h"
   947                           ADCON0 equ 01Fh ;# 
   948                           # 798 "C:\Program Files (x86)\Microchip\xc8\v1.12\include\pic16f689.h"
   949                           OPTION_REG equ 081h ;# 
   950                           # 867 "C:\Program Files (x86)\Microchip\xc8\v1.12\include\pic16f689.h"
   951                           TRISA equ 085h ;# 
   952                           # 916 "C:\Program Files (x86)\Microchip\xc8\v1.12\include\pic16f689.h"
   953                           TRISB equ 086h ;# 
   954                           # 954 "C:\Program Files (x86)\Microchip\xc8\v1.12\include\pic16f689.h"
   955                           TRISC equ 087h ;# 
   956                           # 1015 "C:\Program Files (x86)\Microchip\xc8\v1.12\include\pic16f689.h"
   957                           PIE1 equ 08Ch ;# 
   958                           # 1067 "C:\Program Files (x86)\Microchip\xc8\v1.12\include\pic16f689.h"
   959                           PIE2 equ 08Dh ;# 
   960                           # 1105 "C:\Program Files (x86)\Microchip\xc8\v1.12\include\pic16f689.h"
   961                           PCON equ 08Eh ;# 
   962                           # 1143 "C:\Program Files (x86)\Microchip\xc8\v1.12\include\pic16f689.h"
   963                           OSCCON equ 08Fh ;# 
   964                           # 1207 "C:\Program Files (x86)\Microchip\xc8\v1.12\include\pic16f689.h"
   965                           OSCTUNE equ 090h ;# 
   966                           # 1258 "C:\Program Files (x86)\Microchip\xc8\v1.12\include\pic16f689.h"
   967                           SSPADD equ 093h ;# 
   968                           # 1264 "C:\Program Files (x86)\Microchip\xc8\v1.12\include\pic16f689.h"
   969                           SSPMSK equ 093h ;# 
   970                           # 1269 "C:\Program Files (x86)\Microchip\xc8\v1.12\include\pic16f689.h"
   971                           MSK equ 093h ;# 
   972                           # 1385 "C:\Program Files (x86)\Microchip\xc8\v1.12\include\pic16f689.h"
   973                           SSPSTAT equ 094h ;# 
   974                           # 1553 "C:\Program Files (x86)\Microchip\xc8\v1.12\include\pic16f689.h"
   975                           WPUA equ 095h ;# 
   976                           # 1558 "C:\Program Files (x86)\Microchip\xc8\v1.12\include\pic16f689.h"
   977                           WPU equ 095h ;# 
   978                           # 1706 "C:\Program Files (x86)\Microchip\xc8\v1.12\include\pic16f689.h"
   979                           IOCA equ 096h ;# 
   980                           # 1711 "C:\Program Files (x86)\Microchip\xc8\v1.12\include\pic16f689.h"
   981                           IOC equ 096h ;# 
   982                           # 1879 "C:\Program Files (x86)\Microchip\xc8\v1.12\include\pic16f689.h"
   983                           WDTCON equ 097h ;# 
   984                           # 1931 "C:\Program Files (x86)\Microchip\xc8\v1.12\include\pic16f689.h"
   985                           TXSTA equ 098h ;# 
   986                           # 2001 "C:\Program Files (x86)\Microchip\xc8\v1.12\include\pic16f689.h"
   987                           SPBRG equ 099h ;# 
   988                           # 2062 "C:\Program Files (x86)\Microchip\xc8\v1.12\include\pic16f689.h"
   989                           SPBRGH equ 09Ah ;# 
   990                           # 2123 "C:\Program Files (x86)\Microchip\xc8\v1.12\include\pic16f689.h"
   991                           BAUDCTL equ 09Bh ;# 
   992                           # 2174 "C:\Program Files (x86)\Microchip\xc8\v1.12\include\pic16f689.h"
   993                           ADRESL equ 09Eh ;# 
   994                           # 2180 "C:\Program Files (x86)\Microchip\xc8\v1.12\include\pic16f689.h"
   995                           ADCON1 equ 09Fh ;# 
   996                           # 2221 "C:\Program Files (x86)\Microchip\xc8\v1.12\include\pic16f689.h"
   997                           EEDAT equ 010Ch ;# 
   998                           # 2226 "C:\Program Files (x86)\Microchip\xc8\v1.12\include\pic16f689.h"
   999                           EEDATA equ 010Ch ;# 
  1000                           # 2232 "C:\Program Files (x86)\Microchip\xc8\v1.12\include\pic16f689.h"
  1001                           EEADR equ 010Dh ;# 
  1002                           # 2238 "C:\Program Files (x86)\Microchip\xc8\v1.12\include\pic16f689.h"
  1003                           EEDATH equ 010Eh ;# 
  1004                           # 2244 "C:\Program Files (x86)\Microchip\xc8\v1.12\include\pic16f689.h"
  1005                           EEADRH equ 010Fh ;# 
  1006                           # 2250 "C:\Program Files (x86)\Microchip\xc8\v1.12\include\pic16f689.h"
  1007                           WPUB equ 0115h ;# 
  1008  072A                     __pmaintext:	;psect for function _main
  1009                           opt subtitle "HI-TECH Software Omniscient Code Generator (Lite mode) build 49521"
  1010                           
  1011                           opt pagewidth 120
  1012                           
  1013  00D6                     	__size_of_main	equ	__end_of_main-_main
  1014                           opt subtitle "HI-TECH Software Omniscient Code Generator (Lite mode) build 49521"
  1015  072A                     _main:	
  1016                           opt subtitle "HI-TECH Software Omniscient Code Generator (Lite mode) build 49521"
  1017                           
  1018                           opt pagewidth 120
  1019                           
  1020  072A                     l1322:	
  1021                           opt subtitle "HI-TECH Software Omniscient Code Generator (Lite mode) build 49521"
  1022                           
  1023  072A  3001               	movlw	(01h)
  1024  072B  118A  23EA  118A   	fcall	_ConfigureOscillator
  1025                           opt subtitle "HI-TECH Software Omniscient Code Generator (Lite mode) build 49521"
  1026                           
  1027  072E                     l1324:	
  1028                           opt subtitle "HI-TECH Software Omniscient Code Generator (Lite mode) build 49521"
  1029  072E  1283               	bcf	status, 5	;RP0=0, select bank0
  1030  072F  1303               	bcf	status, 6	;RP1=0, select bank0
  1031  0730  1307               	bcf	(62/8),(62)&7	;volatile
  1032                           opt subtitle "HI-TECH Software Omniscient Code Generator (Lite mode) build 49521"
  1033                           
  1034  0731  118A  2431  118A   	fcall	_InitApp
  1035                           opt subtitle "HI-TECH Software Omniscient Code Generator (Lite mode) build 49521"
  1036                           
  1037  0734  118A  2514  118A   	fcall	_InitRadio
  1038                           opt subtitle "HI-TECH Software Omniscient Code Generator (Lite mode) build 49521"
  1039                           
  1040  0737                     l1326:	
  1041                           opt subtitle "HI-TECH Software Omniscient Code Generator (Lite mode) build 49521"
  1042  0737  1283               	bcf	status, 5	;RP0=0, select bank0
  1043  0738  1303               	bcf	status, 6	;RP1=0, select bank0
  1044  0739  01AE               	clrf	(main@cnt)
  1045                           opt subtitle "HI-TECH Software Omniscient Code Generator (Lite mode) build 49521"
  1046  073A                     l1328:	
  1047  073A  3008               	movlw	(08h)
  1048  073B  022E               	subwf	(main@cnt),w
  1049  073C  1C03               	skipc
  1050  073D  2F3F               	goto	u871
  1051  073E  2F40               	goto	u870
  1052  073F                     u871:
  1053  073F  2F42               	goto	l1332
  1054  0740                     u870:
  1055  0740  2F52               	goto	l1338
  1056                           opt subtitle "HI-TECH Software Omniscient Code Generator (Lite mode) build 49521"
  1057  0741                     l1330:	
  1058  0741  2F52               	goto	l1338
  1059                           opt subtitle "HI-TECH Software Omniscient Code Generator (Lite mode) build 49521"
  1060  0742                     l40:	
  1061                           opt subtitle "HI-TECH Software Omniscient Code Generator (Lite mode) build 49521"
  1062                           
  1063  0742                     l1332:	
  1064                           opt subtitle "HI-TECH Software Omniscient Code Generator (Lite mode) build 49521"
  1065  0742  082E               	movf	(main@cnt),w
  1066  0743  3E34               	addlw	_datapacket&0ffh
  1067  0744  0084               	movwf	fsr0
  1068  0745  1383               	bcf	status, 7	;select IRP bank0
  1069  0746  0180               	clrf	indf
  1070                           opt subtitle "HI-TECH Software Omniscient Code Generator (Lite mode) build 49521"
  1071                           
  1072  0747                     l1334:	
  1073  0747  3001               	movlw	(01h)
  1074  0748  00AA               	movwf	(??_main+0)+0
  1075  0749  082A               	movf	(??_main+0)+0,w
  1076  074A  07AE               	addwf	(main@cnt),f
  1077                           opt subtitle "HI-TECH Software Omniscient Code Generator (Lite mode) build 49521"
  1078  074B                     l1336:	
  1079  074B  3008               	movlw	(08h)
  1080  074C  022E               	subwf	(main@cnt),w
  1081  074D  1C03               	skipc
  1082  074E  2F50               	goto	u881
  1083  074F  2F51               	goto	u880
  1084  0750                     u881:
  1085  0750  2F42               	goto	l1332
  1086  0751                     u880:
  1087  0751  2F52               	goto	l1338
  1088                           opt subtitle "HI-TECH Software Omniscient Code Generator (Lite mode) build 49521"
  1089  0752                     l41:	
  1090                           opt subtitle "HI-TECH Software Omniscient Code Generator (Lite mode) build 49521"
  1091                           
  1092  0752                     l1338:	
  1093                           opt subtitle "HI-TECH Software Omniscient Code Generator (Lite mode) build 49521"
  1094                           
  1095  0752  3034               	movlw	(_datapacket)&0ffh
  1096  0753  118A  241A  118A   	fcall	_GetAddr
  1097                           opt subtitle "HI-TECH Software Omniscient Code Generator (Lite mode) build 49521"
  1098                           
  1099  0756                     l1340:	
  1100                           opt subtitle "HI-TECH Software Omniscient Code Generator (Lite mode) build 49521"
  1101  0756  3005               	movlw	(_mType-__stringbase)
  1102  0757  0084               	movwf	fsr0
  1103  0758  118A  2002  118A   	fcall	stringdir
  1104  075B  1283               	bcf	status, 5	;RP0=0, select bank0
  1105  075C  1303               	bcf	status, 6	;RP1=0, select bank0
  1106  075D  00AA               	movwf	(??_main+0)+0
  1107  075E  0837               	movf	0+(_datapacket)+03h,w
  1108  075F  062A               	xorwf	(??_main+0)+0,w
  1109  0760  3900               	andlw	not ((1<<8)-1)
  1110  0761  062A               	xorwf	(??_main+0)+0,w
  1111  0762  00B7               	movwf	0+(_datapacket)+03h
  1112                           opt subtitle "HI-TECH Software Omniscient Code Generator (Lite mode) build 49521"
  1113                           
  1114  0763                     l1342:	
  1115                           opt subtitle "HI-TECH Software Omniscient Code Generator (Lite mode) build 49521"
  1116  0763  01AE               	clrf	(main@cnt)
  1117                           opt subtitle "HI-TECH Software Omniscient Code Generator (Lite mode) build 49521"
  1118  0764                     l1344:	
  1119  0764  3014               	movlw	(014h)
  1120  0765  022E               	subwf	(main@cnt),w
  1121  0766  1C03               	skipc
  1122  0767  2F69               	goto	u891
  1123  0768  2F6A               	goto	u890
  1124  0769                     u891:
  1125  0769  2F6C               	goto	l1348
  1126  076A                     u890:
  1127  076A  2F87               	goto	l1354
  1128                           opt subtitle "HI-TECH Software Omniscient Code Generator (Lite mode) build 49521"
  1129  076B                     l1346:	
  1130  076B  2F87               	goto	l1354
  1131                           opt subtitle "HI-TECH Software Omniscient Code Generator (Lite mode) build 49521"
  1132  076C                     l42:	
  1133                           opt subtitle "HI-TECH Software Omniscient Code Generator (Lite mode) build 49521"
  1134                           
  1135  076C                     l1348:	
  1136                           opt subtitle "HI-TECH Software Omniscient Code Generator (Lite mode) build 49521"
  1137                           
  1138  076C  3002               movlw  2
  1139  076D  00AC               movwf	((??_main+0)+0+2),f
  1140  076E  3004               movlw	4
  1141  076F  00AB               movwf	((??_main+0)+0+1),f
  1142  0770  30BA               	movlw	186
  1143  0771  00AA               movwf	((??_main+0)+0),f
  1144  0772                     u957:
  1145  0772  0BAA               	decfsz	((??_main+0)+0),f
  1146  0773  2F72               	goto	u957
  1147  0774  0BAB               	decfsz	((??_main+0)+0+1),f
  1148  0775  2F72               	goto	u957
  1149  0776  0BAC               	decfsz	((??_main+0)+0+2),f
  1150  0777  2F72               	goto	u957
  1151  0778  0000               	nop
  1152                           opt subtitle "HI-TECH Software Omniscient Code Generator (Lite mode) build 49521"
  1153                           
  1154                           opt pagewidth 120
  1155                           
  1156  0779                     l1350:	
  1157  0779  3001               	movlw	(01h)
  1158  077A  1283               	bcf	status, 5	;RP0=0, select bank0
  1159  077B  1303               	bcf	status, 6	;RP1=0, select bank0
  1160  077C  00AA               	movwf	(??_main+0)+0
  1161  077D  082A               	movf	(??_main+0)+0,w
  1162  077E  07AE               	addwf	(main@cnt),f
  1163                           opt subtitle "HI-TECH Software Omniscient Code Generator (Lite mode) build 49521"
  1164  077F                     l1352:	
  1165  077F  3014               	movlw	(014h)
  1166  0780  022E               	subwf	(main@cnt),w
  1167  0781  1C03               	skipc
  1168  0782  2F84               	goto	u901
  1169  0783  2F85               	goto	u900
  1170  0784                     u901:
  1171  0784  2F6C               	goto	l1348
  1172  0785                     u900:
  1173  0785  2F87               	goto	l1354
  1174                           opt subtitle "HI-TECH Software Omniscient Code Generator (Lite mode) build 49521"
  1175  0786                     l43:	
  1176  0786  2F87               	goto	l1354
  1177                           opt subtitle "HI-TECH Software Omniscient Code Generator (Lite mode) build 49521"
  1178                           
  1179                           opt pagewidth 120
  1180                           
  1181  0787                     l44:	
  1182                           opt subtitle "HI-TECH Software Omniscient Code Generator (Lite mode) build 49521"
  1183                           
  1184  0787                     l1354:	
  1185                           opt subtitle "HI-TECH Software Omniscient Code Generator (Lite mode) build 49521"
  1186                           
  1187  0787  3001               	movlw	(01h)
  1188  0788  118A  23EA  118A   	fcall	_ConfigureOscillator
  1189                           opt subtitle "HI-TECH Software Omniscient Code Generator (Lite mode) build 49521"
  1190                           
  1191  078B                     l1356:	
  1192                           opt subtitle "HI-TECH Software Omniscient Code Generator (Lite mode) build 49521"
  1193  078B  1283               	bcf	status, 5	;RP0=0, select bank0
  1194  078C  1303               	bcf	status, 6	;RP1=0, select bank0
  1195  078D  1707               	bsf	(62/8),(62)&7	;volatile
  1196                           opt subtitle "HI-TECH Software Omniscient Code Generator (Lite mode) build 49521"
  1197                           
  1198  078E                     l1358:	
  1199                           opt subtitle "HI-TECH Software Omniscient Code Generator (Lite mode) build 49521"
  1200  078E  118A  25B8  118A   	fcall	_getValue
  1201                           opt subtitle "HI-TECH Software Omniscient Code Generator (Lite mode) build 49521"
  1202                           
  1203  0791                     l1360:	
  1204                           opt subtitle "HI-TECH Software Omniscient Code Generator (Lite mode) build 49521"
  1205  0791  3034               	movlw	(_datapacket)&0ffh
  1206  0792  118A  257E  118A   	fcall	_TXData
  1207                           opt subtitle "HI-TECH Software Omniscient Code Generator (Lite mode) build 49521"
  1208                           
  1209  0795                     l1362:	
  1210                           opt subtitle "HI-TECH Software Omniscient Code Generator (Lite mode) build 49521"
  1211  0795  1283               	bcf	status, 5	;RP0=0, select bank0
  1212  0796  1303               	bcf	status, 6	;RP1=0, select bank0
  1213  0797  1307               	bcf	(62/8),(62)&7	;volatile
  1214                           opt subtitle "HI-TECH Software Omniscient Code Generator (Lite mode) build 49521"
  1215                           
  1216  0798                     l1364:	
  1217                           opt subtitle "HI-TECH Software Omniscient Code Generator (Lite mode) build 49521"
  1218  0798  3000               	movlw	(0)
  1219  0799  118A  23EA  118A   	fcall	_ConfigureOscillator
  1220                           opt subtitle "HI-TECH Software Omniscient Code Generator (Lite mode) build 49521"
  1221                           
  1222  079C                     l1366:	
  1223                           opt subtitle "HI-TECH Software Omniscient Code Generator (Lite mode) build 49521"
  1224  079C  1283               	bcf	status, 5	;RP0=0, select bank0
  1225  079D  1303               	bcf	status, 6	;RP1=0, select bank0
  1226  079E  01AE               	clrf	(main@cnt)
  1227                           opt subtitle "HI-TECH Software Omniscient Code Generator (Lite mode) build 49521"
  1228  079F                     l1368:	
  1229  079F  3040               	movlw	(040h)
  1230  07A0  022E               	subwf	(main@cnt),w
  1231  07A1  1C03               	skipc
  1232  07A2  2FA4               	goto	u911
  1233  07A3  2FA5               	goto	u910
  1234  07A4                     u911:
  1235  07A4  2FA7               	goto	l1372
  1236  07A5                     u910:
  1237  07A5  2F87               	goto	l1354
  1238                           opt subtitle "HI-TECH Software Omniscient Code Generator (Lite mode) build 49521"
  1239  07A6                     l1370:	
  1240  07A6  2F87               	goto	l1354
  1241                           opt subtitle "HI-TECH Software Omniscient Code Generator (Lite mode) build 49521"
  1242                           
  1243  07A7                     l45:	
  1244                           opt subtitle "HI-TECH Software Omniscient Code Generator (Lite mode) build 49521"
  1245                           
  1246  07A7                     l1372:	
  1247                           opt subtitle "HI-TECH Software Omniscient Code Generator (Lite mode) build 49521"
  1248                           
  1249                           opt pagewidth 120
  1250  07A7  300B               movlw	11
  1251  07A8  00AB               movwf	((??_main+0)+0+1),f
  1252  07A9  3062               	movlw	98
  1253  07AA  00AA               movwf	((??_main+0)+0),f
  1254  07AB                     u967:
  1255  07AB  0BAA               	decfsz	((??_main+0)+0),f
  1256  07AC  2FAB               	goto	u967
  1257  07AD  0BAB               	decfsz	((??_main+0)+0+1),f
  1258  07AE  2FAB               	goto	u967
  1259  07AF  0000               	nop
  1260                           opt subtitle "HI-TECH Software Omniscient Code Generator (Lite mode) build 49521"
  1261                           
  1262                           opt pagewidth 120
  1263                           
  1264  07B0                     l1374:	
  1265                           opt subtitle "HI-TECH Software Omniscient Code Generator (Lite mode) build 49521"
  1266  07B0  1283               	bcf	status, 5	;RP0=0, select bank0
  1267  07B1  1303               	bcf	status, 6	;RP1=0, select bank0
  1268  07B2  1A06               	btfsc	(52/8),(52)&7	;volatile
  1269  07B3  2FB5               	goto	u921
  1270  07B4  2FB6               	goto	u920
  1271  07B5                     u921:
  1272  07B5  2FBB               	goto	l47
  1273  07B6                     u920:
  1274                           opt subtitle "HI-TECH Software Omniscient Code Generator (Lite mode) build 49521"
  1275  07B6                     l1376:	
  1276  07B6  3001               	movlw	(01h)
  1277  07B7  00AA               	movwf	(??_main+0)+0
  1278  07B8  082A               	movf	(??_main+0)+0,w
  1279  07B9  07AD               	addwf	(main@debounce),f
  1280  07BA  2FBD               	goto	l1378
  1281                           opt subtitle "HI-TECH Software Omniscient Code Generator (Lite mode) build 49521"
  1282  07BB                     l47:	
  1283  07BB  01AD               	clrf	(main@debounce)
  1284  07BC  2FBD               	goto	l1378
  1285                           opt subtitle "HI-TECH Software Omniscient Code Generator (Lite mode) build 49521"
  1286  07BD                     l48:	
  1287                           opt subtitle "HI-TECH Software Omniscient Code Generator (Lite mode) build 49521"
  1288                           
  1289  07BD                     l1378:	
  1290                           opt subtitle "HI-TECH Software Omniscient Code Generator (Lite mode) build 49521"
  1291  07BD  3005               	movlw	(05h)
  1292  07BE  022D               	subwf	(main@debounce),w
  1293  07BF  1C03               	skipc
  1294  07C0  2FC2               	goto	u931
  1295  07C1  2FC3               	goto	u930
  1296  07C2                     u931:
  1297  07C2  2FEF               	goto	l1388
  1298  07C3                     u930:
  1299                           opt subtitle "HI-TECH Software Omniscient Code Generator (Lite mode) build 49521"
  1300                           
  1301  07C3                     l1380:	
  1302                           opt subtitle "HI-TECH Software Omniscient Code Generator (Lite mode) build 49521"
  1303  07C3  3001               	movlw	(01h)
  1304  07C4  118A  23EA  118A   	fcall	_ConfigureOscillator
  1305                           opt subtitle "HI-TECH Software Omniscient Code Generator (Lite mode) build 49521"
  1306                           
  1307  07C7                     l1382:	
  1308                           opt subtitle "HI-TECH Software Omniscient Code Generator (Lite mode) build 49521"
  1309  07C7  3005               	movlw	(_mType-__stringbase)
  1310  07C8  0084               	movwf	fsr0
  1311  07C9  118A  2002  118A   	fcall	stringdir
  1312  07CC  1283               	bcf	status, 5	;RP0=0, select bank0
  1313  07CD  1303               	bcf	status, 6	;RP1=0, select bank0
  1314  07CE  00AA               	movwf	(??_main+0)+0
  1315  07CF  082A               	movf	(??_main+0)+0,w
  1316  07D0  00A0               	movwf	(?_doPair)
  1317  07D1  3001               	movlw	(_mIpu-__stringbase)
  1318  07D2  0084               	movwf	fsr0
  1319  07D3  118A  2002  118A   	fcall	stringdir
  1320  07D6  00A1               	movwf	0+(?_doPair)+01h
  1321  07D7  118A  2002  118A   	fcall	stringdir
  1322  07DA  00A2               	movwf	1+(?_doPair)+01h
  1323  07DB  118A  2002  118A   	fcall	stringdir
  1324  07DE  00A3               	movwf	2+(?_doPair)+01h
  1325  07DF  118A  2002  118A   	fcall	stringdir
  1326  07E2  00A4               	movwf	3+(?_doPair)+01h
  1327  07E3  3034               	movlw	(_datapacket)&0ffh
  1328  07E4  118A  264D  118A   	fcall	_doPair
  1329                           opt subtitle "HI-TECH Software Omniscient Code Generator (Lite mode) build 49521"
  1330                           
  1331  07E7                     l1384:	
  1332                           opt subtitle "HI-TECH Software Omniscient Code Generator (Lite mode) build 49521"
  1333  07E7  1283               	bcf	status, 5	;RP0=0, select bank0
  1334  07E8  1303               	bcf	status, 6	;RP1=0, select bank0
  1335  07E9  01AD               	clrf	(main@debounce)
  1336                           opt subtitle "HI-TECH Software Omniscient Code Generator (Lite mode) build 49521"
  1337                           
  1338  07EA                     l1386:	
  1339                           opt subtitle "HI-TECH Software Omniscient Code Generator (Lite mode) build 49521"
  1340  07EA  3000               	movlw	(0)
  1341  07EB  118A  23EA  118A   	fcall	_ConfigureOscillator
  1342  07EE  2FEF               	goto	l1388
  1343                           opt subtitle "HI-TECH Software Omniscient Code Generator (Lite mode) build 49521"
  1344                           
  1345  07EF                     l49:	
  1346                           opt subtitle "HI-TECH Software Omniscient Code Generator (Lite mode) build 49521"
  1347                           
  1348  07EF                     l1388:	
  1349  07EF  3001               	movlw	(01h)
  1350  07F0  1283               	bcf	status, 5	;RP0=0, select bank0
  1351  07F1  1303               	bcf	status, 6	;RP1=0, select bank0
  1352  07F2  00AA               	movwf	(??_main+0)+0
  1353  07F3  082A               	movf	(??_main+0)+0,w
  1354  07F4  07AE               	addwf	(main@cnt),f
  1355                           opt subtitle "HI-TECH Software Omniscient Code Generator (Lite mode) build 49521"
  1356  07F5                     l1390:	
  1357  07F5  3040               	movlw	(040h)
  1358  07F6  022E               	subwf	(main@cnt),w
  1359  07F7  1C03               	skipc
  1360  07F8  2FFA               	goto	u941
  1361  07F9  2FFB               	goto	u940
  1362  07FA                     u941:
  1363  07FA  2FA7               	goto	l1372
  1364  07FB                     u940:
  1365  07FB  2F87               	goto	l1354
  1366                           opt subtitle "HI-TECH Software Omniscient Code Generator (Lite mode) build 49521"
  1367  07FC                     l46:	
  1368  07FC  2F87               	goto	l1354
  1369                           opt subtitle "HI-TECH Software Omniscient Code Generator (Lite mode) build 49521"
  1370                           
  1371  07FD                     l50:	
  1372                           opt subtitle "HI-TECH Software Omniscient Code Generator (Lite mode) build 49521"
  1373  07FD  2F87               	goto	l1354
  1374                           opt subtitle "HI-TECH Software Omniscient Code Generator (Lite mode) build 49521"
  1375  07FE                     l51:	
  1376                           opt subtitle "HI-TECH Software Omniscient Code Generator (Lite mode) build 49521"
  1377                           
  1378  07FE                     l52:	
  1379                           opt subtitle "HI-TECH Software Omniscient Code Generator (Lite mode) build 49521"
  1380  07FE  118A  2800         	ljmp	start
  1381                           opt subtitle "HI-TECH Software Omniscient Code Generator (Lite mode) build 49521"
  1382                           
  1383  0800                     	__end_of_main:
  1384                           opt subtitle "HI-TECH Software Omniscient Code Generator (Lite mode) build 49521"
  1385                           
  1386                           opt pagewidth 120
  1387                           
  1388                           	opt lm
  1389                           
  1390                           	processor	16F689
  1391                           clrc	macro
  1392                           	bcf	3,0
  1393                           	endm
  1394                           clrz	macro
  1395                           	bcf	3,2
  1396                           	endm
  1397                           setc	macro
  1398                           	bsf	3,0
  1399                           	endm
  1400                           setz	macro
  1401                           	bsf	3,2
  1402                           	endm
  1403                           skipc	macro
  1404                           	btfss	3,0
  1405                           	endm
  1406                           skipz	macro
  1407                           	btfss	3,2
  1408                           	endm
  1409                           skipnc	macro
  1410                           	btfsc	3,0
  1411                           	endm
  1412                           skipnz	macro
  1413                           	btfsc	3,2
  1414                           	endm
  1415                           indf	equ	0
  1416                           indf0	equ	0
  1417                           pc	equ	2
  1418                           pcl	equ	2
  1419  05B8                     __ptext408:	;psect for function _getValue
  1420                           opt subtitle "HI-TECH Software Omniscient Code Generator (Lite mode) build 49521"
  1421                           
  1422                           opt pagewidth 120
  1423                           
  1424  0048                     	__size_of_getValue	equ	__end_of_getValue-_getValue
  1425                           opt subtitle "HI-TECH Software Omniscient Code Generator (Lite mode) build 49521"
  1426  05B8                     _getValue:	
  1427                           opt subtitle "HI-TECH Software Omniscient Code Generator (Lite mode) build 49521"
  1428                           
  1429                           opt pagewidth 120
  1430                           
  1431  05B8                     l1228:	
  1432                           opt subtitle "HI-TECH Software Omniscient Code Generator (Lite mode) build 49521"
  1433                           
  1434  05B8  118A  26BA  118A   	fcall	_readDHT
  1435                           opt subtitle "HI-TECH Software Omniscient Code Generator (Lite mode) build 49521"
  1436                           
  1437  05BB                     l1230:	
  1438                           opt subtitle "HI-TECH Software Omniscient Code Generator (Lite mode) build 49521"
  1439  05BB  1283               	bcf	status, 5	;RP0=0, select bank0
  1440  05BC  1303               	bcf	status, 6	;RP1=0, select bank0
  1441  05BD  082F               	movf	(_DHTData),w
  1442  05BE  00F8               	movwf	(??_getValue+0)+0+0
  1443  05BF  01F9               	clrf	(??_getValue+0)+0+1
  1444  05C0  0878               	movf	(??_getValue+0)+0,w
  1445  05C1  00F9               	movwf	(??_getValue+0)+1
  1446  05C2  01F8               	clrf	(??_getValue+0)+0
  1447  05C3  0830               	movf	0+(_DHTData)+01h,w
  1448  05C4  0778               	addwf	0+(??_getValue+0)+0,w
  1449  05C5  00FB               	movwf	(getValue@Humi)
  1450  05C6  3000               	movlw	0
  1451  05C7  1803               	skipnc
  1452  05C8  3001               	movlw	1
  1453  05C9  0779               	addwf	1+(??_getValue+0)+0,w
  1454  05CA  00FC               	movwf	1+(getValue@Humi)
  1455                           opt subtitle "HI-TECH Software Omniscient Code Generator (Lite mode) build 49521"
  1456                           
  1457  05CB                     l1232:	
  1458                           opt subtitle "HI-TECH Software Omniscient Code Generator (Lite mode) build 49521"
  1459  05CB  300A               	movlw	low(0Ah)
  1460  05CC  00F0               	movwf	(?___lwdiv)
  1461  05CD  3000               	movlw	high(0Ah)
  1462  05CE  00F1               	movwf	((?___lwdiv))+1
  1463  05CF  087C               	movf	(getValue@Humi+1),w
  1464  05D0  01F3               	clrf	1+(?___lwdiv)+02h
  1465  05D1  07F3               	addwf	1+(?___lwdiv)+02h
  1466  05D2  087B               	movf	(getValue@Humi),w
  1467  05D3  01F2               	clrf	0+(?___lwdiv)+02h
  1468  05D4  07F2               	addwf	0+(?___lwdiv)+02h
  1469                           opt subtitle "HI-TECH Software Omniscient Code Generator (Lite mode) build 49521"
  1470  05D5  118A  2600  118A   	fcall	___lwdiv
  1471  05D8  0871               	movf	(1+(?___lwdiv)),w
  1472  05D9  01FC               	clrf	(getValue@Humi+1)
  1473  05DA  07FC               	addwf	(getValue@Humi+1)
  1474  05DB  0870               	movf	(0+(?___lwdiv)),w
  1475  05DC  01FB               	clrf	(getValue@Humi)
  1476  05DD  07FB               	addwf	(getValue@Humi)
  1477                           opt subtitle "HI-TECH Software Omniscient Code Generator (Lite mode) build 49521"
  1478                           
  1479                           opt pagewidth 120
  1480  05DE                     l1234:	
  1481                           opt subtitle "HI-TECH Software Omniscient Code Generator (Lite mode) build 49521"
  1482  05DE  1283               	bcf	status, 5	;RP0=0, select bank0
  1483  05DF  1303               	bcf	status, 6	;RP1=0, select bank0
  1484  05E0  0838               	movf	0+(_datapacket)+04h,w
  1485  05E1  067B               	xorwf	(getValue@Humi),w
  1486  05E2  3900               	andlw	not ((1<<8)-1)
  1487  05E3  067B               	xorwf	(getValue@Humi),w
  1488  05E4  00B8               	movwf	0+(_datapacket)+04h
  1489                           opt subtitle "HI-TECH Software Omniscient Code Generator (Lite mode) build 49521"
  1490                           
  1491  05E5                     l1236:	
  1492                           opt subtitle "HI-TECH Software Omniscient Code Generator (Lite mode) build 49521"
  1493  05E5  0839               	movf	0+(_datapacket)+05h,w
  1494  05E6  0631               	xorwf	0+(_DHTData)+02h,w
  1495  05E7  3900               	andlw	not ((1<<8)-1)
  1496  05E8  0631               	xorwf	0+(_DHTData)+02h,w
  1497  05E9  00B9               	movwf	0+(_datapacket)+05h
  1498                           opt subtitle "HI-TECH Software Omniscient Code Generator (Lite mode) build 49521"
  1499                           
  1500  05EA                     l1238:	
  1501                           opt subtitle "HI-TECH Software Omniscient Code Generator (Lite mode) build 49521"
  1502  05EA  083A               	movf	0+(_datapacket)+06h,w
  1503  05EB  0632               	xorwf	0+(_DHTData)+03h,w
  1504  05EC  3900               	andlw	not ((1<<8)-1)
  1505  05ED  0632               	xorwf	0+(_DHTData)+03h,w
  1506  05EE  00BA               	movwf	0+(_datapacket)+06h
  1507                           opt subtitle "HI-TECH Software Omniscient Code Generator (Lite mode) build 49521"
  1508                           
  1509  05EF                     l1240:	
  1510                           opt subtitle "HI-TECH Software Omniscient Code Generator (Lite mode) build 49521"
  1511                           
  1512                           opt pagewidth 120
  1513  05EF  083A               	movf	0+(_datapacket)+06h,w
  1514  05F0  39FF               	andlw	(1<<8)-1
  1515  05F1  00F8               	movwf	(??_getValue+0)+0
  1516  05F2  0839               	movf	0+(_datapacket)+05h,w
  1517  05F3  39FF               	andlw	(1<<8)-1
  1518  05F4  00F9               	movwf	(??_getValue+1)+0
  1519  05F5  0838               	movf	0+(_datapacket)+04h,w
  1520  05F6  39FF               	andlw	(1<<8)-1
  1521  05F7  0779               	addwf	(??_getValue+1)+0,w
  1522  05F8  0778               	addwf	(??_getValue+0)+0,w
  1523  05F9  00FA               	movwf	(??_getValue+2)+0
  1524  05FA  083B               	movf	0+(_datapacket)+07h,w
  1525  05FB  067A               	xorwf	(??_getValue+2)+0,w
  1526  05FC  3900               	andlw	not ((1<<8)-1)
  1527  05FD  067A               	xorwf	(??_getValue+2)+0,w
  1528  05FE  00BB               	movwf	0+(_datapacket)+07h
  1529                           opt subtitle "HI-TECH Software Omniscient Code Generator (Lite mode) build 49521"
  1530                           
  1531  05FF                     l37:	
  1532  05FF  0008               	return
  1533                           opt subtitle "HI-TECH Software Omniscient Code Generator (Lite mode) build 49521"
  1534                           
  1535  0600                     	__end_of_getValue:
  1536                           opt subtitle "HI-TECH Software Omniscient Code Generator (Lite mode) build 49521"
  1537                           
  1538                           opt pagewidth 120
  1539                           
  1540                           	opt lm
  1541                           
  1542                           	processor	16F689
  1543                           clrc	macro
  1544                           	bcf	3,0
  1545                           	endm
  1546                           clrz	macro
  1547                           	bcf	3,2
  1548                           	endm
  1549                           setc	macro
  1550                           	bsf	3,0
  1551                           	endm
  1552                           setz	macro
  1553                           	bsf	3,2
  1554                           	endm
  1555                           skipc	macro
  1556                           	btfss	3,0
  1557                           	endm
  1558                           skipz	macro
  1559                           	btfss	3,2
  1560                           	endm
  1561                           skipnc	macro
  1562                           	btfsc	3,0
  1563                           	endm
  1564                           skipnz	macro
  1565                           	btfsc	3,2
  1566                           	endm
  1567                           indf	equ	0
  1568                           indf0	equ	0
  1569                           pc	equ	2
  1570  06BA                     __ptext409:	;psect for function _readDHT
  1571                           opt subtitle "HI-TECH Software Omniscient Code Generator (Lite mode) build 49521"
  1572                           
  1573                           opt pagewidth 120
  1574                           
  1575  0070                     	__size_of_readDHT	equ	__end_of_readDHT-_readDHT
  1576                           opt subtitle "HI-TECH Software Omniscient Code Generator (Lite mode) build 49521"
  1577  06BA                     _readDHT:	
  1578                           opt subtitle "HI-TECH Software Omniscient Code Generator (Lite mode) build 49521"
  1579                           
  1580                           opt pagewidth 120
  1581                           
  1582  06BA                     l1140:	
  1583                           opt subtitle "HI-TECH Software Omniscient Code Generator (Lite mode) build 49521"
  1584                           
  1585  06BA  1683               	bsf	status, 5	;RP0=1, select bank1
  1586  06BB  1303               	bcf	status, 6	;RP1=0, select bank1
  1587  06BC  1187               	bcf	(1083/8)^080h,(1083)&7	;volatile
  1588                           opt subtitle "HI-TECH Software Omniscient Code Generator (Lite mode) build 49521"
  1589                           
  1590  06BD  1283               	bcf	status, 5	;RP0=0, select bank0
  1591  06BE  1303               	bcf	status, 6	;RP1=0, select bank0
  1592  06BF  1187               	bcf	(59/8),(59)&7	;volatile
  1593                           opt subtitle "HI-TECH Software Omniscient Code Generator (Lite mode) build 49521"
  1594                           
  1595  06C0                     l1142:	
  1596                           opt subtitle "HI-TECH Software Omniscient Code Generator (Lite mode) build 49521"
  1597                           
  1598  06C0  304E               movlw	78
  1599  06C1  00F1               movwf	((??_readDHT+0)+0+1),f
  1600  06C2  30EB               	movlw	235
  1601  06C3  00F0               movwf	((??_readDHT+0)+0),f
  1602  06C4                     u977:
  1603  06C4  0BF0               	decfsz	((??_readDHT+0)+0),f
  1604  06C5  2EC4               	goto	u977
  1605  06C6  0BF1               	decfsz	((??_readDHT+0)+0+1),f
  1606  06C7  2EC4               	goto	u977
  1607                           opt subtitle "HI-TECH Software Omniscient Code Generator (Lite mode) build 49521"
  1608                           
  1609                           opt pagewidth 120
  1610                           
  1611  06C8                     l1144:	
  1612                           opt subtitle "HI-TECH Software Omniscient Code Generator (Lite mode) build 49521"
  1613  06C8  1683               	bsf	status, 5	;RP0=1, select bank1
  1614  06C9  1303               	bcf	status, 6	;RP1=0, select bank1
  1615  06CA  1587               	bsf	(1083/8)^080h,(1083)&7	;volatile
  1616                           opt subtitle "HI-TECH Software Omniscient Code Generator (Lite mode) build 49521"
  1617                           
  1618                           opt pagewidth 120
  1619  06CB  3017               movlw	23
  1620  06CC  00F0               movwf	(??_readDHT+0)+0,f
  1621  06CD                     u987:
  1622  06CD  0BF0               decfsz	(??_readDHT+0)+0,f
  1623  06CE  2ECD               	goto	u987
  1624                           opt subtitle "HI-TECH Software Omniscient Code Generator (Lite mode) build 49521"
  1625                           
  1626                           opt pagewidth 120
  1627                           
  1628  06CF  2ED0               	goto	l55
  1629                           opt subtitle "HI-TECH Software Omniscient Code Generator (Lite mode) build 49521"
  1630  06D0                     l56:	
  1631                           opt subtitle "HI-TECH Software Omniscient Code Generator (Lite mode) build 49521"
  1632  06D0                     l55:	
  1633  06D0  1283               	bcf	status, 5	;RP0=0, select bank0
  1634  06D1  1303               	bcf	status, 6	;RP1=0, select bank0
  1635  06D2  1D87               	btfss	(59/8),(59)&7	;volatile
  1636  06D3  2ED5               	goto	u631
  1637  06D4  2ED6               	goto	u630
  1638  06D5                     u631:
  1639  06D5  2ED0               	goto	l55
  1640  06D6                     u630:
  1641  06D6  2ED8               	goto	l58
  1642                           opt subtitle "HI-TECH Software Omniscient Code Generator (Lite mode) build 49521"
  1643  06D7                     l57:	
  1644                           opt subtitle "HI-TECH Software Omniscient Code Generator (Lite mode) build 49521"
  1645                           
  1646  06D7  2ED8               	goto	l58
  1647                           opt subtitle "HI-TECH Software Omniscient Code Generator (Lite mode) build 49521"
  1648  06D8                     l59:	
  1649                           opt subtitle "HI-TECH Software Omniscient Code Generator (Lite mode) build 49521"
  1650  06D8                     l58:	
  1651  06D8  1987               	btfsc	(59/8),(59)&7	;volatile
  1652  06D9  2EDB               	goto	u641
  1653  06DA  2EDC               	goto	u640
  1654  06DB                     u641:
  1655  06DB  2ED8               	goto	l58
  1656  06DC                     u640:
  1657                           opt subtitle "HI-TECH Software Omniscient Code Generator (Lite mode) build 49521"
  1658  06DC                     l60:	
  1659                           opt subtitle "HI-TECH Software Omniscient Code Generator (Lite mode) build 49521"
  1660                           
  1661  06DC  01F3               	clrf	(readDHT@k)
  1662                           opt subtitle "HI-TECH Software Omniscient Code Generator (Lite mode) build 49521"
  1663  06DD                     l1146:	
  1664  06DD  3005               	movlw	(05h)
  1665  06DE  0273               	subwf	(readDHT@k),w
  1666  06DF  1C03               	skipc
  1667  06E0  2EE2               	goto	u651
  1668  06E1  2EE3               	goto	u650
  1669  06E2                     u651:
  1670  06E2  2EE5               	goto	l1150
  1671  06E3                     u650:
  1672  06E3  2F29               	goto	l69
  1673                           opt subtitle "HI-TECH Software Omniscient Code Generator (Lite mode) build 49521"
  1674  06E4                     l1148:	
  1675  06E4  2F29               	goto	l69
  1676                           opt subtitle "HI-TECH Software Omniscient Code Generator (Lite mode) build 49521"
  1677                           
  1678  06E5                     l61:	
  1679                           opt subtitle "HI-TECH Software Omniscient Code Generator (Lite mode) build 49521"
  1680                           
  1681  06E5                     l1150:	
  1682                           opt subtitle "HI-TECH Software Omniscient Code Generator (Lite mode) build 49521"
  1683                           
  1684  06E5  0873               	movf	(readDHT@k),w
  1685  06E6  3E2F               	addlw	_DHTData&0ffh
  1686  06E7  0084               	movwf	fsr0
  1687  06E8  1383               	bcf	status, 7	;select IRP bank0
  1688  06E9  0180               	clrf	indf
  1689                           opt subtitle "HI-TECH Software Omniscient Code Generator (Lite mode) build 49521"
  1690                           
  1691  06EA                     l1152:	
  1692                           opt subtitle "HI-TECH Software Omniscient Code Generator (Lite mode) build 49521"
  1693  06EA  01F2               	clrf	(readDHT@i)
  1694                           opt subtitle "HI-TECH Software Omniscient Code Generator (Lite mode) build 49521"
  1695  06EB                     l1154:	
  1696  06EB  3008               	movlw	(08h)
  1697  06EC  0272               	subwf	(readDHT@i),w
  1698  06ED  1C03               	skipc
  1699  06EE  2EF0               	goto	u661
  1700  06EF  2EF1               	goto	u660
  1701  06F0                     u661:
  1702  06F0  2EF3               	goto	l1158
  1703  06F1                     u660:
  1704  06F1  2F1E               	goto	l1170
  1705                           opt subtitle "HI-TECH Software Omniscient Code Generator (Lite mode) build 49521"
  1706  06F2                     l1156:	
  1707  06F2  2F1E               	goto	l1170
  1708                           opt subtitle "HI-TECH Software Omniscient Code Generator (Lite mode) build 49521"
  1709                           
  1710  06F3                     l63:	
  1711                           opt subtitle "HI-TECH Software Omniscient Code Generator (Lite mode) build 49521"
  1712                           
  1713  06F3                     l1158:	
  1714                           opt subtitle "HI-TECH Software Omniscient Code Generator (Lite mode) build 49521"
  1715                           
  1716  06F3  0873               	movf	(readDHT@k),w
  1717  06F4  3E2F               	addlw	_DHTData&0ffh
  1718  06F5  0084               	movwf	fsr0
  1719  06F6  1003               	clrc
  1720  06F7  1383               	bcf	status, 7	;select IRP bank0
  1721  06F8  0D80               	rlf	indf,f
  1722                           opt subtitle "HI-TECH Software Omniscient Code Generator (Lite mode) build 49521"
  1723                           
  1724                           opt pagewidth 120
  1725  06F9                     l1160:	
  1726                           opt subtitle "HI-TECH Software Omniscient Code Generator (Lite mode) build 49521"
  1727  06F9  01FD               	clrf	(_gcnt)
  1728                           opt subtitle "HI-TECH Software Omniscient Code Generator (Lite mode) build 49521"
  1729                           
  1730  06FA  2EFB               	goto	l65
  1731                           opt subtitle "HI-TECH Software Omniscient Code Generator (Lite mode) build 49521"
  1732  06FB                     l66:	
  1733                           opt subtitle "HI-TECH Software Omniscient Code Generator (Lite mode) build 49521"
  1734  06FB                     l65:	
  1735  06FB  1283               	bcf	status, 5	;RP0=0, select bank0
  1736  06FC  1303               	bcf	status, 6	;RP1=0, select bank0
  1737  06FD  1D87               	btfss	(59/8),(59)&7	;volatile
  1738  06FE  2F00               	goto	u671
  1739  06FF  2F01               	goto	u670
  1740  0700                     u671:
  1741  0700  2EFB               	goto	l65
  1742  0701                     u670:
  1743                           opt subtitle "HI-TECH Software Omniscient Code Generator (Lite mode) build 49521"
  1744  0701                     l67:	
  1745                           opt subtitle "HI-TECH Software Omniscient Code Generator (Lite mode) build 49521"
  1746                           
  1747  0701  1303  1283         banksel (_gcnt) ;# 
  1748                           opt subtitle "HI-TECH Software Omniscient Code Generator (Lite mode) build 49521"
  1749                           
  1750  0703                     DHTloop: ;# 
  1751                           opt subtitle "HI-TECH Software Omniscient Code Generator (Lite mode) build 49521"
  1752                           
  1753  0703  1D87               BTFSS PORTC, 0x3 ;# 
  1754                           opt subtitle "HI-TECH Software Omniscient Code Generator (Lite mode) build 49521"
  1755                           
  1756  0704  2F07               GOTO DHTexit ;# 
  1757                           opt subtitle "HI-TECH Software Omniscient Code Generator (Lite mode) build 49521"
  1758                           
  1759  0705  0AFD               INCF (_gcnt) ;# 
  1760                           opt subtitle "HI-TECH Software Omniscient Code Generator (Lite mode) build 49521"
  1761                           
  1762  0706  2F03               GOTO DHTloop ;# 
  1763                           opt subtitle "HI-TECH Software Omniscient Code Generator (Lite mode) build 49521"
  1764                           
  1765  0707                     DHTexit: ;# 
  1766                           opt subtitle "HI-TECH Software Omniscient Code Generator (Lite mode) build 49521"
  1767                           
  1768                           opt pagewidth 120
  1769  0707                     l1162:	
  1770                           opt subtitle "HI-TECH Software Omniscient Code Generator (Lite mode) build 49521"
  1771  0707  3011               	movlw	(011h)
  1772  0708  027D               	subwf	(_gcnt),w
  1773  0709  1C03               	skipc
  1774  070A  2F0C               	goto	u681
  1775  070B  2F0D               	goto	u680
  1776  070C                     u681:
  1777  070C  2F13               	goto	l1166
  1778  070D                     u680:
  1779                           opt subtitle "HI-TECH Software Omniscient Code Generator (Lite mode) build 49521"
  1780                           
  1781  070D                     l1164:	
  1782                           opt subtitle "HI-TECH Software Omniscient Code Generator (Lite mode) build 49521"
  1783  070D  0873               	movf	(readDHT@k),w
  1784  070E  3E2F               	addlw	_DHTData&0ffh
  1785  070F  0084               	movwf	fsr0
  1786  0710  1383               	bcf	status, 7	;select IRP bank0
  1787  0711  1400               	bsf	indf+(0/8),(0)&7
  1788  0712  2F13               	goto	l1166
  1789                           opt subtitle "HI-TECH Software Omniscient Code Generator (Lite mode) build 49521"
  1790                           
  1791  0713                     l68:	
  1792                           opt subtitle "HI-TECH Software Omniscient Code Generator (Lite mode) build 49521"
  1793                           
  1794  0713                     l1166:	
  1795  0713  3001               	movlw	(01h)
  1796  0714  00F0               	movwf	(??_readDHT+0)+0
  1797  0715  0870               	movf	(??_readDHT+0)+0,w
  1798  0716  07F2               	addwf	(readDHT@i),f
  1799                           opt subtitle "HI-TECH Software Omniscient Code Generator (Lite mode) build 49521"
  1800  0717                     l1168:	
  1801  0717  3008               	movlw	(08h)
  1802  0718  0272               	subwf	(readDHT@i),w
  1803  0719  1C03               	skipc
  1804  071A  2F1C               	goto	u691
  1805  071B  2F1D               	goto	u690
  1806  071C                     u691:
  1807  071C  2EF3               	goto	l1158
  1808  071D                     u690:
  1809  071D  2F1E               	goto	l1170
  1810                           opt subtitle "HI-TECH Software Omniscient Code Generator (Lite mode) build 49521"
  1811  071E                     l64:	
  1812                           opt subtitle "HI-TECH Software Omniscient Code Generator (Lite mode) build 49521"
  1813                           
  1814  071E                     l1170:	
  1815  071E  3001               	movlw	(01h)
  1816  071F  00F0               	movwf	(??_readDHT+0)+0
  1817  0720  0870               	movf	(??_readDHT+0)+0,w
  1818  0721  07F3               	addwf	(readDHT@k),f
  1819                           opt subtitle "HI-TECH Software Omniscient Code Generator (Lite mode) build 49521"
  1820  0722                     l1172:	
  1821  0722  3005               	movlw	(05h)
  1822  0723  0273               	subwf	(readDHT@k),w
  1823  0724  1C03               	skipc
  1824  0725  2F27               	goto	u701
  1825  0726  2F28               	goto	u700
  1826  0727                     u701:
  1827  0727  2EE5               	goto	l1150
  1828  0728                     u700:
  1829  0728  2F29               	goto	l69
  1830                           opt subtitle "HI-TECH Software Omniscient Code Generator (Lite mode) build 49521"
  1831  0729                     l62:	
  1832                           opt subtitle "HI-TECH Software Omniscient Code Generator (Lite mode) build 49521"
  1833                           
  1834  0729                     l69:	
  1835  0729  0008               	return
  1836                           opt subtitle "HI-TECH Software Omniscient Code Generator (Lite mode) build 49521"
  1837                           
  1838  072A                     	__end_of_readDHT:
  1839                           opt subtitle "HI-TECH Software Omniscient Code Generator (Lite mode) build 49521"
  1840                           
  1841                           opt pagewidth 120
  1842                           
  1843                           	opt lm
  1844                           
  1845                           	processor	16F689
  1846                           clrc	macro
  1847                           	bcf	3,0
  1848                           	endm
  1849                           clrz	macro
  1850                           	bcf	3,2
  1851                           	endm
  1852                           setc	macro
  1853                           	bsf	3,0
  1854                           	endm
  1855                           setz	macro
  1856                           	bsf	3,2
  1857                           	endm
  1858                           skipc	macro
  1859                           	btfss	3,0
  1860                           	endm
  1861                           skipz	macro
  1862                           	btfss	3,2
  1863                           	endm
  1864                           skipnc	macro
  1865                           	btfsc	3,0
  1866                           	endm
  1867                           skipnz	macro
  1868                           	btfsc	3,2
  1869                           	endm
  1870                           indf	equ	0
  1871                           indf0	equ	0
  1872  03EA                     __ptext410:	;psect for function _ConfigureOscillator
  1873                           opt subtitle "HI-TECH Software Omniscient Code Generator (Lite mode) build 49521"
  1874                           
  1875                           opt pagewidth 120
  1876                           
  1877  000F                     	__size_of_ConfigureOscillator	equ	__end_of_ConfigureOscillator-_ConfigureOscillator
  1878                           opt subtitle "HI-TECH Software Omniscient Code Generator (Lite mode) build 49521"
  1879  03EA                     _ConfigureOscillator:	
  1880                           opt subtitle "HI-TECH Software Omniscient Code Generator (Lite mode) build 49521"
  1881                           
  1882                           opt pagewidth 120
  1883  03EA  00F0               	movwf	(ConfigureOscillator@speed)
  1884                           opt subtitle "HI-TECH Software Omniscient Code Generator (Lite mode) build 49521"
  1885                           
  1886  03EB                     l1072:	
  1887                           opt subtitle "HI-TECH Software Omniscient Code Generator (Lite mode) build 49521"
  1888  03EB  0870               	movf	(ConfigureOscillator@speed),w
  1889  03EC  1D03               	skipz
  1890  03ED  2BEF               	goto	u530
  1891  03EE  2BF4               	goto	l1076
  1892  03EF                     u530:
  1893                           opt subtitle "HI-TECH Software Omniscient Code Generator (Lite mode) build 49521"
  1894                           
  1895  03EF                     l1074:	
  1896                           opt subtitle "HI-TECH Software Omniscient Code Generator (Lite mode) build 49521"
  1897  03EF  3070               	movlw	(070h)
  1898  03F0  1683               	bsf	status, 5	;RP0=1, select bank1
  1899  03F1  1303               	bcf	status, 6	;RP1=0, select bank1
  1900  03F2  008F               	movwf	(143)^080h	;volatile
  1901                           opt subtitle "HI-TECH Software Omniscient Code Generator (Lite mode) build 49521"
  1902                           
  1903  03F3  2BF8               	goto	l215
  1904                           opt subtitle "HI-TECH Software Omniscient Code Generator (Lite mode) build 49521"
  1905  03F4                     l213:	
  1906                           opt subtitle "HI-TECH Software Omniscient Code Generator (Lite mode) build 49521"
  1907                           
  1908  03F4                     l1076:	
  1909                           opt subtitle "HI-TECH Software Omniscient Code Generator (Lite mode) build 49521"
  1910  03F4  1683               	bsf	status, 5	;RP0=1, select bank1
  1911  03F5  1303               	bcf	status, 6	;RP1=0, select bank1
  1912  03F6  018F               	clrf	(143)^080h	;volatile
  1913  03F7  2BF8               	goto	l215
  1914                           opt subtitle "HI-TECH Software Omniscient Code Generator (Lite mode) build 49521"
  1915                           
  1916  03F8                     l214:	
  1917                           opt subtitle "HI-TECH Software Omniscient Code Generator (Lite mode) build 49521"
  1918                           
  1919  03F8                     l215:	
  1920  03F8  0008               	return
  1921                           opt subtitle "HI-TECH Software Omniscient Code Generator (Lite mode) build 49521"
  1922                           
  1923  03F9                     	__end_of_ConfigureOscillator:
  1924                           opt subtitle "HI-TECH Software Omniscient Code Generator (Lite mode) build 49521"
  1925                           
  1926                           opt pagewidth 120
  1927                           
  1928                           	opt lm
  1929                           
  1930                           	processor	16F689
  1931                           clrc	macro
  1932                           	bcf	3,0
  1933                           	endm
  1934                           clrz	macro
  1935                           	bcf	3,2
  1936                           	endm
  1937                           setc	macro
  1938                           	bsf	3,0
  1939                           	endm
  1940                           setz	macro
  1941                           	bsf	3,2
  1942                           	endm
  1943                           skipc	macro
  1944                           	btfss	3,0
  1945                           	endm
  1946                           skipz	macro
  1947                           	btfss	3,2
  1948                           	endm
  1949                           skipnc	macro
  1950                           	btfsc	3,0
  1951                           	endm
  1952                           skipnz	macro
  1953                           	btfsc	3,2
  1954                           	endm
  1955                           indf	equ	0
  1956                           indf0	equ	0
  1957  0431                     __ptext411:	;psect for function _InitApp
  1958                           opt subtitle "HI-TECH Software Omniscient Code Generator (Lite mode) build 49521"
  1959                           
  1960                           opt pagewidth 120
  1961                           
  1962  001C                     	__size_of_InitApp	equ	__end_of_InitApp-_InitApp
  1963                           opt subtitle "HI-TECH Software Omniscient Code Generator (Lite mode) build 49521"
  1964  0431                     _InitApp:	
  1965                           opt subtitle "HI-TECH Software Omniscient Code Generator (Lite mode) build 49521"
  1966                           
  1967                           opt pagewidth 120
  1968                           
  1969  0431                     l1078:	
  1970                           opt subtitle "HI-TECH Software Omniscient Code Generator (Lite mode) build 49521"
  1971  0431  1283               	bcf	status, 5	;RP0=0, select bank2
  1972  0432  1703               	bsf	status, 6	;RP1=1, select bank2
  1973  0433  019E               	clrf	(286)^0100h	;volatile
  1974                           opt subtitle "HI-TECH Software Omniscient Code Generator (Lite mode) build 49521"
  1975                           
  1976  0434  019F               	clrf	(287)^0100h	;volatile
  1977                           opt subtitle "HI-TECH Software Omniscient Code Generator (Lite mode) build 49521"
  1978                           
  1979  0435                     l1080:	
  1980                           opt subtitle "HI-TECH Software Omniscient Code Generator (Lite mode) build 49521"
  1981  0435  30FC               	movlw	(0FCh)
  1982  0436  1683               	bsf	status, 5	;RP0=1, select bank1
  1983  0437  1303               	bcf	status, 6	;RP1=0, select bank1
  1984  0438  0085               	movwf	(133)^080h	;volatile
  1985                           opt subtitle "HI-TECH Software Omniscient Code Generator (Lite mode) build 49521"
  1986                           
  1987  0439                     l1082:	
  1988                           opt subtitle "HI-TECH Software Omniscient Code Generator (Lite mode) build 49521"
  1989  0439  303F               	movlw	(03Fh)
  1990  043A  0086               	movwf	(134)^080h	;volatile
  1991                           opt subtitle "HI-TECH Software Omniscient Code Generator (Lite mode) build 49521"
  1992                           
  1993  043B                     l1084:	
  1994                           opt subtitle "HI-TECH Software Omniscient Code Generator (Lite mode) build 49521"
  1995  043B  308F               	movlw	(08Fh)
  1996  043C  0087               	movwf	(135)^080h	;volatile
  1997                           opt subtitle "HI-TECH Software Omniscient Code Generator (Lite mode) build 49521"
  1998                           
  1999  043D                     l1086:	
  2000                           opt subtitle "HI-TECH Software Omniscient Code Generator (Lite mode) build 49521"
  2001  043D  1283               	bcf	status, 5	;RP0=0, select bank2
  2002  043E  1703               	bsf	status, 6	;RP1=1, select bank2
  2003  043F  1615               	bsf	(2220/8)^0100h,(2220)&7	;volatile
  2004                           opt subtitle "HI-TECH Software Omniscient Code Generator (Lite mode) build 49521"
  2005                           
  2006  0440                     l1088:	
  2007                           opt subtitle "HI-TECH Software Omniscient Code Generator (Lite mode) build 49521"
  2008  0440  1683               	bsf	status, 5	;RP0=1, select bank1
  2009  0441  1303               	bcf	status, 6	;RP1=0, select bank1
  2010  0442  1381               	bcf	(1039/8)^080h,(1039)&7	;volatile
  2011                           opt subtitle "HI-TECH Software Omniscient Code Generator (Lite mode) build 49521"
  2012                           
  2013  0443                     l1090:	
  2014                           opt subtitle "HI-TECH Software Omniscient Code Generator (Lite mode) build 49521"
  2015  0443  1283               	bcf	status, 5	;RP0=0, select bank0
  2016  0444  1303               	bcf	status, 6	;RP1=0, select bank0
  2017  0445  1687               	bsf	(61/8),(61)&7	;volatile
  2018                           opt subtitle "HI-TECH Software Omniscient Code Generator (Lite mode) build 49521"
  2019                           
  2020  0446                     l1092:	
  2021                           opt subtitle "HI-TECH Software Omniscient Code Generator (Lite mode) build 49521"
  2022  0446  1786               	bsf	(55/8),(55)&7	;volatile
  2023                           opt subtitle "HI-TECH Software Omniscient Code Generator (Lite mode) build 49521"
  2024                           
  2025  0447                     l1094:	
  2026                           opt subtitle "HI-TECH Software Omniscient Code Generator (Lite mode) build 49521"
  2027  0447  1306               	bcf	(54/8),(54)&7	;volatile
  2028                           opt subtitle "HI-TECH Software Omniscient Code Generator (Lite mode) build 49521"
  2029                           
  2030  0448                     l1096:	
  2031                           opt subtitle "HI-TECH Software Omniscient Code Generator (Lite mode) build 49521"
  2032  0448  1207               	bcf	(60/8),(60)&7	;volatile
  2033                           opt subtitle "HI-TECH Software Omniscient Code Generator (Lite mode) build 49521"
  2034                           
  2035  0449                     l1098:	
  2036                           opt subtitle "HI-TECH Software Omniscient Code Generator (Lite mode) build 49521"
  2037  0449  3005               	movlw	(05h)
  2038  044A  0090               	movwf	(16)	;volatile
  2039                           opt subtitle "HI-TECH Software Omniscient Code Generator (Lite mode) build 49521"
  2040                           
  2041  044B                     l1100:	
  2042                           opt subtitle "HI-TECH Software Omniscient Code Generator (Lite mode) build 49521"
  2043  044B  1405               	bsf	(40/8),(40)&7	;volatile
  2044                           opt subtitle "HI-TECH Software Omniscient Code Generator (Lite mode) build 49521"
  2045                           
  2046  044C                     l210:	
  2047  044C  0008               	return
  2048                           opt subtitle "HI-TECH Software Omniscient Code Generator (Lite mode) build 49521"
  2049                           
  2050  044D                     	__end_of_InitApp:
  2051                           opt subtitle "HI-TECH Software Omniscient Code Generator (Lite mode) build 49521"
  2052                           
  2053                           opt pagewidth 120
  2054                           
  2055                           	opt lm
  2056                           
  2057                           	processor	16F689
  2058                           clrc	macro
  2059                           	bcf	3,0
  2060                           	endm
  2061                           clrz	macro
  2062                           	bcf	3,2
  2063                           	endm
  2064                           setc	macro
  2065                           	bsf	3,0
  2066                           	endm
  2067                           setz	macro
  2068                           	bsf	3,2
  2069                           	endm
  2070                           skipc	macro
  2071                           	btfss	3,0
  2072                           	endm
  2073                           skipz	macro
  2074                           	btfss	3,2
  2075                           	endm
  2076                           skipnc	macro
  2077                           	btfsc	3,0
  2078                           	endm
  2079                           skipnz	macro
  2080                           	btfsc	3,2
  2081                           	endm
  2082                           indf	equ	0
  2083                           indf0	equ	0
  2084                           pc	equ	2
  2085  0514                     __ptext412:	;psect for function _InitRadio
  2086                           opt subtitle "HI-TECH Software Omniscient Code Generator (Lite mode) build 49521"
  2087                           
  2088                           opt pagewidth 120
  2089                           
  2090  0032                     	__size_of_InitRadio	equ	__end_of_InitRadio-_InitRadio
  2091                           opt subtitle "HI-TECH Software Omniscient Code Generator (Lite mode) build 49521"
  2092  0514                     _InitRadio:	
  2093                           opt subtitle "HI-TECH Software Omniscient Code Generator (Lite mode) build 49521"
  2094                           
  2095                           opt pagewidth 120
  2096                           
  2097  0514                     l1242:	
  2098                           opt subtitle "HI-TECH Software Omniscient Code Generator (Lite mode) build 49521"
  2099  0514  3000               	movlw	low(0CC00h)
  2100  0515  00F0               	movwf	(?_SendCTRL)
  2101  0516  30CC               	movlw	high(0CC00h)
  2102  0517  00F1               	movwf	((?_SendCTRL))+1
  2103  0518  118A  246E  118A   	fcall	_SendCTRL
  2104                           opt subtitle "HI-TECH Software Omniscient Code Generator (Lite mode) build 49521"
  2105                           
  2106  051B  30F0               	movlw	low(088F0h)
  2107  051C  00F0               	movwf	(?_SendCTRL)
  2108  051D  3088               	movlw	high(088F0h)
  2109  051E  00F1               	movwf	((?_SendCTRL))+1
  2110  051F  118A  246E  118A   	fcall	_SendCTRL
  2111                           opt subtitle "HI-TECH Software Omniscient Code Generator (Lite mode) build 49521"
  2112                           
  2113  0522  3057               	movlw	low(0C857h)
  2114  0523  00F0               	movwf	(?_SendCTRL)
  2115  0524  30C8               	movlw	high(0C857h)
  2116  0525  00F1               	movwf	((?_SendCTRL))+1
  2117  0526  118A  246E  118A   	fcall	_SendCTRL
  2118                           opt subtitle "HI-TECH Software Omniscient Code Generator (Lite mode) build 49521"
  2119                           
  2120  0529  3040               	movlw	low(0D240h)
  2121  052A  00F0               	movwf	(?_SendCTRL)
  2122  052B  30D2               	movlw	high(0D240h)
  2123  052C  00F1               	movwf	((?_SendCTRL))+1
  2124  052D  118A  246E  118A   	fcall	_SendCTRL
  2125                           opt subtitle "HI-TECH Software Omniscient Code Generator (Lite mode) build 49521"
  2126                           
  2127  0530  3034               	movlw	low(0A634h)
  2128  0531  00F0               	movwf	(?_SendCTRL)
  2129  0532  30A6               	movlw	high(0A634h)
  2130  0533  00F1               	movwf	((?_SendCTRL))+1
  2131  0534  118A  246E  118A   	fcall	_SendCTRL
  2132                           opt subtitle "HI-TECH Software Omniscient Code Generator (Lite mode) build 49521"
  2133                           
  2134  0537  3020               	movlw	low(0C220h)
  2135  0538  00F0               	movwf	(?_SendCTRL)
  2136  0539  30C2               	movlw	high(0C220h)
  2137  053A  00F1               	movwf	((?_SendCTRL))+1
  2138  053B  118A  246E  118A   	fcall	_SendCTRL
  2139                           opt subtitle "HI-TECH Software Omniscient Code Generator (Lite mode) build 49521"
  2140                           
  2141  053E  3001               	movlw	low(0C001h)
  2142  053F  00F0               	movwf	(?_SendCTRL)
  2143  0540  30C0               	movlw	high(0C001h)
  2144  0541  00F1               	movwf	((?_SendCTRL))+1
  2145  0542  118A  246E  118A   	fcall	_SendCTRL
  2146                           opt subtitle "HI-TECH Software Omniscient Code Generator (Lite mode) build 49521"
  2147                           
  2148  0545                     l162:	
  2149  0545  0008               	return
  2150                           opt subtitle "HI-TECH Software Omniscient Code Generator (Lite mode) build 49521"
  2151                           
  2152  0546                     	__end_of_InitRadio:
  2153                           opt subtitle "HI-TECH Software Omniscient Code Generator (Lite mode) build 49521"
  2154                           
  2155                           opt pagewidth 120
  2156                           
  2157                           	opt lm
  2158                           
  2159                           	processor	16F689
  2160                           clrc	macro
  2161                           	bcf	3,0
  2162                           	endm
  2163                           clrz	macro
  2164                           	bcf	3,2
  2165                           	endm
  2166                           setc	macro
  2167                           	bsf	3,0
  2168                           	endm
  2169                           setz	macro
  2170                           	bsf	3,2
  2171                           	endm
  2172                           skipc	macro
  2173                           	btfss	3,0
  2174                           	endm
  2175                           skipz	macro
  2176                           	btfss	3,2
  2177                           	endm
  2178                           skipnc	macro
  2179                           	btfsc	3,0
  2180                           	endm
  2181                           skipnz	macro
  2182                           	btfsc	3,2
  2183                           	endm
  2184                           indf	equ	0
  2185                           indf0	equ	0
  2186                           pc	equ	2
  2187                           pcl	equ	2
  2188                           status	equ	3
  2189  041A                     __ptext413:	;psect for function _GetAddr
  2190                           opt subtitle "HI-TECH Software Omniscient Code Generator (Lite mode) build 49521"
  2191                           
  2192                           opt pagewidth 120
  2193                           
  2194  0017                     	__size_of_GetAddr	equ	__end_of_GetAddr-_GetAddr
  2195                           opt subtitle "HI-TECH Software Omniscient Code Generator (Lite mode) build 49521"
  2196  041A                     _GetAddr:	
  2197                           opt subtitle "HI-TECH Software Omniscient Code Generator (Lite mode) build 49521"
  2198                           
  2199                           opt pagewidth 120
  2200  041A  00F2               	movwf	(GetAddr@txBuff)
  2201                           opt subtitle "HI-TECH Software Omniscient Code Generator (Lite mode) build 49521"
  2202                           
  2203  041B                     l1174:	
  2204                           opt subtitle "HI-TECH Software Omniscient Code Generator (Lite mode) build 49521"
  2205  041B  3000               	movlw	(0)
  2206  041C  118A  23CD  118A   	fcall	_EEPROM_getc
  2207  041F  00F1               	movwf	(??_GetAddr+0)+0
  2208  0420  0872               	movf	(GetAddr@txBuff),w
  2209  0421  0084               	movwf	fsr0
  2210  0422  0871               	movf	(??_GetAddr+0)+0,w
  2211  0423  1383               	bcf	status, 7	;select IRP bank0
  2212  0424  0080               	movwf	indf
  2213                           opt subtitle "HI-TECH Software Omniscient Code Generator (Lite mode) build 49521"
  2214                           
  2215  0425  3001               	movlw	(01h)
  2216  0426  118A  23CD  118A   	fcall	_EEPROM_getc
  2217  0429  00F1               	movwf	(??_GetAddr+0)+0
  2218  042A  0A72               	incf	(GetAddr@txBuff),w
  2219  042B  0084               	movwf	fsr0
  2220  042C  0871               	movf	(??_GetAddr+0)+0,w
  2221  042D  1383               	bcf	status, 7	;select IRP bank0
  2222  042E  0080               	movwf	indf
  2223  042F  2C30               	goto	l146
  2224                           opt subtitle "HI-TECH Software Omniscient Code Generator (Lite mode) build 49521"
  2225                           
  2226  0430                     l1176:	
  2227                           opt subtitle "HI-TECH Software Omniscient Code Generator (Lite mode) build 49521"
  2228                           
  2229                           opt pagewidth 120
  2230                           
  2231  0430                     l146:	
  2232  0430  0008               	return
  2233                           opt subtitle "HI-TECH Software Omniscient Code Generator (Lite mode) build 49521"
  2234                           
  2235  0431                     	__end_of_GetAddr:
  2236                           opt subtitle "HI-TECH Software Omniscient Code Generator (Lite mode) build 49521"
  2237                           
  2238                           opt pagewidth 120
  2239                           
  2240                           	opt lm
  2241                           
  2242                           	processor	16F689
  2243                           clrc	macro
  2244                           	bcf	3,0
  2245                           	endm
  2246                           clrz	macro
  2247                           	bcf	3,2
  2248                           	endm
  2249                           setc	macro
  2250                           	bsf	3,0
  2251                           	endm
  2252                           setz	macro
  2253                           	bsf	3,2
  2254                           	endm
  2255                           skipc	macro
  2256                           	btfss	3,0
  2257                           	endm
  2258                           skipz	macro
  2259                           	btfss	3,2
  2260                           	endm
  2261                           skipnc	macro
  2262                           	btfsc	3,0
  2263                           	endm
  2264                           skipnz	macro
  2265                           	btfsc	3,2
  2266                           	endm
  2267                           indf	equ	0
  2268                           indf0	equ	0
  2269                           pc	equ	2
  2270                           pcl	equ	2
  2271                           status	equ	3
  2272                           fsr	equ	4
  2273                           fsr0	equ	4
  2274                           c	equ	1
  2275  064D                     __ptext414:	;psect for function _doPair
  2276                           opt subtitle "HI-TECH Software Omniscient Code Generator (Lite mode) build 49521"
  2277                           
  2278                           opt pagewidth 120
  2279                           
  2280  006D                     	__size_of_doPair	equ	__end_of_doPair-_doPair
  2281                           opt subtitle "HI-TECH Software Omniscient Code Generator (Lite mode) build 49521"
  2282  064D                     _doPair:	
  2283                           opt subtitle "HI-TECH Software Omniscient Code Generator (Lite mode) build 49521"
  2284                           
  2285                           opt pagewidth 120
  2286  064D  00FC               	movwf	(doPair@txBuff)
  2287                           opt subtitle "HI-TECH Software Omniscient Code Generator (Lite mode) build 49521"
  2288                           
  2289  064E                     l1306:	
  2290                           opt subtitle "HI-TECH Software Omniscient Code Generator (Lite mode) build 49521"
  2291  064E  01F4               	clrf	(?_GenAddr)
  2292  064F  0AF4               	incf	(?_GenAddr),f
  2293  0650  087C               	movf	(doPair@txBuff),w
  2294  0651  118A  24E5  118A   	fcall	_GenAddr
  2295                           opt subtitle "HI-TECH Software Omniscient Code Generator (Lite mode) build 49521"
  2296                           
  2297  0654                     l1308:	
  2298                           opt subtitle "HI-TECH Software Omniscient Code Generator (Lite mode) build 49521"
  2299  0654  087C               	movf	(doPair@txBuff),w
  2300  0655  3E02               	addlw	02h
  2301  0656  0084               	movwf	fsr0
  2302  0657  1383               	bcf	status, 7	;select IRP bank0
  2303  0658  0180               	clrf	indf
  2304                           opt subtitle "HI-TECH Software Omniscient Code Generator (Lite mode) build 49521"
  2305                           
  2306  0659                     l1310:	
  2307                           opt subtitle "HI-TECH Software Omniscient Code Generator (Lite mode) build 49521"
  2308  0659  1283               	bcf	status, 5	;RP0=0, select bank0
  2309  065A  1303               	bcf	status, 6	;RP1=0, select bank0
  2310  065B  0820               	movf	(doPair@mType),w
  2311  065C  00A5               	movwf	(??_doPair+0)+0
  2312  065D  087C               	movf	(doPair@txBuff),w
  2313  065E  3E03               	addlw	03h
  2314  065F  0084               	movwf	fsr0
  2315  0660  0825               	movf	(??_doPair+0)+0,w
  2316  0661  0080               	movwf	indf
  2317                           opt subtitle "HI-TECH Software Omniscient Code Generator (Lite mode) build 49521"
  2318                           
  2319  0662                     l1312:	
  2320                           opt subtitle "HI-TECH Software Omniscient Code Generator (Lite mode) build 49521"
  2321  0662  3000               	movlw	0
  2322  0663  0521               	andwf	(doPair@ipu),w
  2323  0664  00A5               	movwf	(??_doPair+0)+0
  2324  0665  3000               	movlw	0
  2325  0666  0522               	andwf	(doPair@ipu+1),w
  2326  0667  00A6               	movwf	((??_doPair+0)+0+1)
  2327  0668  3000               	movlw	0
  2328  0669  0523               	andwf	(doPair@ipu+2),w
  2329  066A  00A7               	movwf	((??_doPair+0)+0+2)
  2330  066B  30FF               	movlw	0FFh
  2331  066C  0524               	andwf	(doPair@ipu+3),w
  2332  066D  00A8               	movwf	((??_doPair+0)+0+3)
  2333  066E  3018               	movlw	018h
  2334  066F                     u845:
  2335  066F  1003               	clrc
  2336  0670  0CA8               	rrf	(??_doPair+0)+3,f
  2337  0671  0CA7               	rrf	(??_doPair+0)+2,f
  2338  0672  0CA6               	rrf	(??_doPair+0)+1,f
  2339  0673  0CA5               	rrf	(??_doPair+0)+0,f
  2340  0674                     u840:
  2341  0674  3EFF               	addlw	-1
  2342  0675  1D03               	skipz
  2343  0676  2E6F               	goto	u845
  2344  0677  0825               	movf	0+(??_doPair+0)+0,w
  2345  0678  00A9               	movwf	(??_doPair+4)+0
  2346  0679  087C               	movf	(doPair@txBuff),w
  2347  067A  3E04               	addlw	04h
  2348  067B  0084               	movwf	fsr0
  2349  067C  0829               	movf	(??_doPair+4)+0,w
  2350  067D  0080               	movwf	indf
  2351                           opt subtitle "HI-TECH Software Omniscient Code Generator (Lite mode) build 49521"
  2352                           
  2353  067E                     l1314:	
  2354                           opt subtitle "HI-TECH Software Omniscient Code Generator (Lite mode) build 49521"
  2355  067E  0821               	movf	(doPair@ipu),w
  2356  067F  00A5               	movwf	(??_doPair+0)+0
  2357  0680  0822               	movf	(doPair@ipu+1),w
  2358  0681  00A6               	movwf	((??_doPair+0)+0+1)
  2359  0682  0823               	movf	(doPair@ipu+2),w
  2360  0683  00A7               	movwf	((??_doPair+0)+0+2)
  2361  0684  0824               	movf	(doPair@ipu+3),w
  2362  0685  00A8               	movwf	((??_doPair+0)+0+3)
  2363  0686  3010               	movlw	010h
  2364  0687                     u855:
  2365  0687  1003               	clrc
  2366  0688  0CA8               	rrf	(??_doPair+0)+3,f
  2367  0689  0CA7               	rrf	(??_doPair+0)+2,f
  2368  068A  0CA6               	rrf	(??_doPair+0)+1,f
  2369  068B  0CA5               	rrf	(??_doPair+0)+0,f
  2370  068C                     u850:
  2371  068C  3EFF               	addlw	-1
  2372  068D  1D03               	skipz
  2373  068E  2E87               	goto	u855
  2374  068F  0825               	movf	0+(??_doPair+0)+0,w
  2375  0690  00A9               	movwf	(??_doPair+4)+0
  2376  0691  087C               	movf	(doPair@txBuff),w
  2377  0692  3E05               	addlw	05h
  2378  0693  0084               	movwf	fsr0
  2379  0694  0829               	movf	(??_doPair+4)+0,w
  2380  0695  0080               	movwf	indf
  2381                           opt subtitle "HI-TECH Software Omniscient Code Generator (Lite mode) build 49521"
  2382                           
  2383  0696                     l1316:	
  2384                           opt subtitle "HI-TECH Software Omniscient Code Generator (Lite mode) build 49521"
  2385  0696  0821               	movf	(doPair@ipu),w
  2386  0697  00A5               	movwf	(??_doPair+0)+0
  2387  0698  0822               	movf	(doPair@ipu+1),w
  2388  0699  00A6               	movwf	((??_doPair+0)+0+1)
  2389  069A  0823               	movf	(doPair@ipu+2),w
  2390  069B  00A7               	movwf	((??_doPair+0)+0+2)
  2391  069C  0824               	movf	(doPair@ipu+3),w
  2392  069D  00A8               	movwf	((??_doPair+0)+0+3)
  2393  069E  3008               	movlw	08h
  2394  069F                     u865:
  2395  069F  1003               	clrc
  2396  06A0  0CA8               	rrf	(??_doPair+0)+3,f
  2397  06A1  0CA7               	rrf	(??_doPair+0)+2,f
  2398  06A2  0CA6               	rrf	(??_doPair+0)+1,f
  2399  06A3  0CA5               	rrf	(??_doPair+0)+0,f
  2400  06A4                     u860:
  2401  06A4  3EFF               	addlw	-1
  2402  06A5  1D03               	skipz
  2403  06A6  2E9F               	goto	u865
  2404  06A7  0825               	movf	0+(??_doPair+0)+0,w
  2405  06A8  00A9               	movwf	(??_doPair+4)+0
  2406  06A9  087C               	movf	(doPair@txBuff),w
  2407  06AA  3E06               	addlw	06h
  2408  06AB  0084               	movwf	fsr0
  2409  06AC  0829               	movf	(??_doPair+4)+0,w
  2410  06AD  0080               	movwf	indf
  2411                           opt subtitle "HI-TECH Software Omniscient Code Generator (Lite mode) build 49521"
  2412                           
  2413  06AE                     l1318:	
  2414                           opt subtitle "HI-TECH Software Omniscient Code Generator (Lite mode) build 49521"
  2415  06AE  0821               	movf	(doPair@ipu),w
  2416  06AF  00A5               	movwf	(??_doPair+0)+0
  2417  06B0  087C               	movf	(doPair@txBuff),w
  2418  06B1  3E07               	addlw	07h
  2419  06B2  0084               	movwf	fsr0
  2420  06B3  0825               	movf	(??_doPair+0)+0,w
  2421  06B4  0080               	movwf	indf
  2422                           opt subtitle "HI-TECH Software Omniscient Code Generator (Lite mode) build 49521"
  2423                           
  2424  06B5                     l1320:	
  2425                           opt subtitle "HI-TECH Software Omniscient Code Generator (Lite mode) build 49521"
  2426  06B5  087C               	movf	(doPair@txBuff),w
  2427  06B6  118A  2546  118A   	fcall	_PairTX
  2428                           opt subtitle "HI-TECH Software Omniscient Code Generator (Lite mode) build 49521"
  2429                           
  2430  06B9                     l154:	
  2431  06B9  0008               	return
  2432                           opt subtitle "HI-TECH Software Omniscient Code Generator (Lite mode) build 49521"
  2433                           
  2434  06BA                     	__end_of_doPair:
  2435                           opt subtitle "HI-TECH Software Omniscient Code Generator (Lite mode) build 49521"
  2436                           
  2437                           opt pagewidth 120
  2438                           
  2439                           	opt lm
  2440                           
  2441                           	processor	16F689
  2442                           clrc	macro
  2443                           	bcf	3,0
  2444                           	endm
  2445                           clrz	macro
  2446                           	bcf	3,2
  2447                           	endm
  2448                           setc	macro
  2449                           	bsf	3,0
  2450                           	endm
  2451                           setz	macro
  2452                           	bsf	3,2
  2453                           	endm
  2454                           skipc	macro
  2455                           	btfss	3,0
  2456                           	endm
  2457                           skipz	macro
  2458                           	btfss	3,2
  2459                           	endm
  2460                           skipnc	macro
  2461                           	btfsc	3,0
  2462                           	endm
  2463                           skipnz	macro
  2464                           	btfsc	3,2
  2465                           	endm
  2466                           indf	equ	0
  2467                           indf0	equ	0
  2468                           pc	equ	2
  2469                           pcl	equ	2
  2470                           status	equ	3
  2471                           fsr	equ	4
  2472  04E5                     __ptext415:	;psect for function _GenAddr
  2473                           opt subtitle "HI-TECH Software Omniscient Code Generator (Lite mode) build 49521"
  2474                           
  2475                           opt pagewidth 120
  2476                           
  2477  002F                     	__size_of_GenAddr	equ	__end_of_GenAddr-_GenAddr
  2478                           opt subtitle "HI-TECH Software Omniscient Code Generator (Lite mode) build 49521"
  2479  04E5                     _GenAddr:	
  2480                           opt subtitle "HI-TECH Software Omniscient Code Generator (Lite mode) build 49521"
  2481                           
  2482                           opt pagewidth 120
  2483  04E5  00F6               	movwf	(GenAddr@txBuff)
  2484                           opt subtitle "HI-TECH Software Omniscient Code Generator (Lite mode) build 49521"
  2485                           
  2486  04E6                     l1244:	
  2487                           opt subtitle "HI-TECH Software Omniscient Code Generator (Lite mode) build 49521"
  2488  04E6  1283               	bcf	status, 5	;RP0=0, select bank0
  2489  04E7  1303               	bcf	status, 6	;RP1=0, select bank0
  2490  04E8  080F               	movf	(15),w	;volatile
  2491  04E9  390F               	andlw	0Fh
  2492  04EA  00F5               	movwf	(??_GenAddr+0)+0
  2493  04EB  0876               	movf	(GenAddr@txBuff),w
  2494  04EC  0084               	movwf	fsr0
  2495  04ED  0875               	movf	(??_GenAddr+0)+0,w
  2496  04EE  1383               	bcf	status, 7	;select IRP bank0
  2497  04EF  0080               	movwf	indf
  2498                           opt subtitle "HI-TECH Software Omniscient Code Generator (Lite mode) build 49521"
  2499                           
  2500  04F0                     l1246:	
  2501                           opt subtitle "HI-TECH Software Omniscient Code Generator (Lite mode) build 49521"
  2502  04F0  0874               	movf	(GenAddr@type),w
  2503  04F1  1D03               	skipz
  2504  04F2  2CF4               	goto	u790
  2505  04F3  2CF7               	goto	l142
  2506  04F4                     u790:
  2507                           opt subtitle "HI-TECH Software Omniscient Code Generator (Lite mode) build 49521"
  2508  04F4                     l1248:	
  2509  04F4  0876               	movf	(GenAddr@txBuff),w
  2510  04F5  0084               	movwf	fsr0
  2511  04F6  1700               	bsf	indf+(6/8),(6)&7
  2512                           opt subtitle "HI-TECH Software Omniscient Code Generator (Lite mode) build 49521"
  2513  04F7                     l142:	
  2514                           opt subtitle "HI-TECH Software Omniscient Code Generator (Lite mode) build 49521"
  2515                           
  2516  04F7  080E               	movf	(14),w	;volatile
  2517  04F8  00F5               	movwf	(??_GenAddr+0)+0
  2518  04F9  0A76               	incf	(GenAddr@txBuff),w
  2519  04FA  0084               	movwf	fsr0
  2520  04FB  0875               	movf	(??_GenAddr+0)+0,w
  2521  04FC  0080               	movwf	indf
  2522                           opt subtitle "HI-TECH Software Omniscient Code Generator (Lite mode) build 49521"
  2523                           
  2524  04FD                     l1250:	
  2525                           opt subtitle "HI-TECH Software Omniscient Code Generator (Lite mode) build 49521"
  2526  04FD  0876               	movf	(GenAddr@txBuff),w
  2527  04FE  0084               	movwf	fsr0
  2528  04FF  0800               	movf	indf,w
  2529  0500  00F5               	movwf	(??_GenAddr+0)+0
  2530  0501  0875               	movf	(??_GenAddr+0)+0,w
  2531  0502  00F0               	movwf	(?_EEPROM_putc)
  2532  0503  3000               	movlw	(0)
  2533  0504  118A  2495  118A   	fcall	_EEPROM_putc
  2534                           opt subtitle "HI-TECH Software Omniscient Code Generator (Lite mode) build 49521"
  2535                           
  2536  0507                     l1252:	
  2537                           opt subtitle "HI-TECH Software Omniscient Code Generator (Lite mode) build 49521"
  2538  0507  0A76               	incf	(GenAddr@txBuff),w
  2539  0508  0084               	movwf	fsr0
  2540  0509  1383               	bcf	status, 7	;select IRP bank0
  2541  050A  0800               	movf	indf,w
  2542  050B  00F5               	movwf	(??_GenAddr+0)+0
  2543  050C  0875               	movf	(??_GenAddr+0)+0,w
  2544  050D  00F0               	movwf	(?_EEPROM_putc)
  2545  050E  3001               	movlw	(01h)
  2546  050F  118A  2495  118A   	fcall	_EEPROM_putc
  2547  0512  2D13               	goto	l143
  2548                           opt subtitle "HI-TECH Software Omniscient Code Generator (Lite mode) build 49521"
  2549                           
  2550  0513                     l1254:	
  2551                           opt subtitle "HI-TECH Software Omniscient Code Generator (Lite mode) build 49521"
  2552                           
  2553                           opt pagewidth 120
  2554                           
  2555  0513                     l143:	
  2556  0513  0008               	return
  2557                           opt subtitle "HI-TECH Software Omniscient Code Generator (Lite mode) build 49521"
  2558                           
  2559  0514                     	__end_of_GenAddr:
  2560                           opt subtitle "HI-TECH Software Omniscient Code Generator (Lite mode) build 49521"
  2561                           
  2562                           opt pagewidth 120
  2563                           
  2564                           	opt lm
  2565                           
  2566                           	processor	16F689
  2567                           clrc	macro
  2568                           	bcf	3,0
  2569                           	endm
  2570                           clrz	macro
  2571                           	bcf	3,2
  2572                           	endm
  2573                           setc	macro
  2574                           	bsf	3,0
  2575                           	endm
  2576                           setz	macro
  2577                           	bsf	3,2
  2578                           	endm
  2579                           skipc	macro
  2580                           	btfss	3,0
  2581                           	endm
  2582                           skipz	macro
  2583                           	btfss	3,2
  2584                           	endm
  2585                           skipnc	macro
  2586                           	btfsc	3,0
  2587                           	endm
  2588                           skipnz	macro
  2589                           	btfsc	3,2
  2590                           	endm
  2591                           indf	equ	0
  2592                           indf0	equ	0
  2593                           pc	equ	2
  2594                           pcl	equ	2
  2595  0495                     __ptext416:	;psect for function _EEPROM_putc
  2596                           opt subtitle "HI-TECH Software Omniscient Code Generator (Lite mode) build 49521"
  2597                           
  2598                           opt pagewidth 120
  2599                           
  2600  0027                     	__size_of_EEPROM_putc	equ	__end_of_EEPROM_putc-_EEPROM_putc
  2601                           opt subtitle "HI-TECH Software Omniscient Code Generator (Lite mode) build 49521"
  2602  0495                     _EEPROM_putc:	
  2603                           opt subtitle "HI-TECH Software Omniscient Code Generator (Lite mode) build 49521"
  2604                           
  2605                           opt pagewidth 120
  2606                           
  2607  0495  00F2               	movwf	(EEPROM_putc@address)
  2608                           opt subtitle "HI-TECH Software Omniscient Code Generator (Lite mode) build 49521"
  2609  0496                     l1178:	
  2610                           opt subtitle "HI-TECH Software Omniscient Code Generator (Lite mode) build 49521"
  2611                           
  2612  0496  0872               	movf	(EEPROM_putc@address),w
  2613  0497  1283               	bcf	status, 5	;RP0=0, select bank2
  2614  0498  1703               	bsf	status, 6	;RP1=1, select bank2
  2615  0499  008D               	movwf	(269)^0100h	;volatile
  2616                           opt subtitle "HI-TECH Software Omniscient Code Generator (Lite mode) build 49521"
  2617                           
  2618  049A  0870               	movf	(EEPROM_putc@data),w
  2619  049B  008C               	movwf	(268)^0100h	;volatile
  2620                           opt subtitle "HI-TECH Software Omniscient Code Generator (Lite mode) build 49521"
  2621                           
  2622  049C                     l1180:	
  2623                           opt subtitle "HI-TECH Software Omniscient Code Generator (Lite mode) build 49521"
  2624  049C  1683               	bsf	status, 5	;RP0=1, select bank3
  2625  049D  1703               	bsf	status, 6	;RP1=1, select bank3
  2626  049E  138C               	bcf	(396)^0180h,7	;volatile
  2627                           opt subtitle "HI-TECH Software Omniscient Code Generator (Lite mode) build 49521"
  2628                           
  2629  049F                     l1182:	
  2630                           opt subtitle "HI-TECH Software Omniscient Code Generator (Lite mode) build 49521"
  2631  049F  150C               	bsf	(396)^0180h,2	;volatile
  2632                           opt subtitle "HI-TECH Software Omniscient Code Generator (Lite mode) build 49521"
  2633                           
  2634  04A0  080B               	movf	(11),w	;volatile
  2635  04A1  00F1               	movwf	(??_EEPROM_putc+0)+0
  2636  04A2  0871               	movf	(??_EEPROM_putc+0)+0,w
  2637  04A3  00F3               	movwf	(EEPROM_putc@INTCON_SAVE)
  2638                           opt subtitle "HI-TECH Software Omniscient Code Generator (Lite mode) build 49521"
  2639                           
  2640  04A4                     l1184:	
  2641                           opt subtitle "HI-TECH Software Omniscient Code Generator (Lite mode) build 49521"
  2642  04A4  018B               	clrf	(11)	;volatile
  2643                           opt subtitle "HI-TECH Software Omniscient Code Generator (Lite mode) build 49521"
  2644                           
  2645  04A5                     l1186:	
  2646                           opt subtitle "HI-TECH Software Omniscient Code Generator (Lite mode) build 49521"
  2647  04A5  3055               	movlw	(055h)
  2648  04A6  008D               	movwf	(397)^0180h	;volatile
  2649                           opt subtitle "HI-TECH Software Omniscient Code Generator (Lite mode) build 49521"
  2650                           
  2651  04A7                     l1188:	
  2652                           opt subtitle "HI-TECH Software Omniscient Code Generator (Lite mode) build 49521"
  2653  04A7  30AA               	movlw	(0AAh)
  2654  04A8  008D               	movwf	(397)^0180h	;volatile
  2655                           opt subtitle "HI-TECH Software Omniscient Code Generator (Lite mode) build 49521"
  2656                           
  2657  04A9                     l1190:	
  2658                           opt subtitle "HI-TECH Software Omniscient Code Generator (Lite mode) build 49521"
  2659  04A9  148C               	bsf	(396)^0180h,1	;volatile
  2660                           opt subtitle "HI-TECH Software Omniscient Code Generator (Lite mode) build 49521"
  2661                           
  2662  04AA                     l1192:	
  2663                           opt subtitle "HI-TECH Software Omniscient Code Generator (Lite mode) build 49521"
  2664  04AA  0873               	movf	(EEPROM_putc@INTCON_SAVE),w
  2665  04AB  008B               	movwf	(11)	;volatile
  2666                           opt subtitle "HI-TECH Software Omniscient Code Generator (Lite mode) build 49521"
  2667                           
  2668  04AC                     l1194:	
  2669                           opt subtitle "HI-TECH Software Omniscient Code Generator (Lite mode) build 49521"
  2670  04AC  0000               	nop
  2671                           opt subtitle "HI-TECH Software Omniscient Code Generator (Lite mode) build 49521"
  2672                           
  2673  04AD  2CAF               	goto	l201
  2674                           opt subtitle "HI-TECH Software Omniscient Code Generator (Lite mode) build 49521"
  2675  04AE                     l202:	
  2676                           opt subtitle "HI-TECH Software Omniscient Code Generator (Lite mode) build 49521"
  2677                           
  2678                           opt pagewidth 120
  2679  04AE  0000               	nop
  2680                           opt subtitle "HI-TECH Software Omniscient Code Generator (Lite mode) build 49521"
  2681                           
  2682  04AF                     l201:	
  2683                           opt subtitle "HI-TECH Software Omniscient Code Generator (Lite mode) build 49521"
  2684  04AF  1283               	bcf	status, 5	;RP0=0, select bank0
  2685  04B0  1303               	bcf	status, 6	;RP1=0, select bank0
  2686  04B1  1E0D               	btfss	(13),4	;volatile
  2687  04B2  2CB4               	goto	u711
  2688  04B3  2CB5               	goto	u710
  2689  04B4                     u711:
  2690  04B4  2CAE               	goto	l202
  2691  04B5                     u710:
  2692                           opt subtitle "HI-TECH Software Omniscient Code Generator (Lite mode) build 49521"
  2693  04B5                     l203:	
  2694                           opt subtitle "HI-TECH Software Omniscient Code Generator (Lite mode) build 49521"
  2695                           
  2696                           opt pagewidth 120
  2697  04B5  1683               	bsf	status, 5	;RP0=1, select bank3
  2698  04B6  1703               	bsf	status, 6	;RP1=1, select bank3
  2699  04B7  110C               	bcf	(396)^0180h,2	;volatile
  2700                           opt subtitle "HI-TECH Software Omniscient Code Generator (Lite mode) build 49521"
  2701                           
  2702  04B8  1283               	bcf	status, 5	;RP0=0, select bank0
  2703  04B9  1303               	bcf	status, 6	;RP1=0, select bank0
  2704  04BA  120D               	bcf	(13),4	;volatile
  2705                           opt subtitle "HI-TECH Software Omniscient Code Generator (Lite mode) build 49521"
  2706                           
  2707  04BB                     l204:	
  2708  04BB  0008               	return
  2709                           opt subtitle "HI-TECH Software Omniscient Code Generator (Lite mode) build 49521"
  2710                           
  2711  04BC                     	__end_of_EEPROM_putc:
  2712                           opt subtitle "HI-TECH Software Omniscient Code Generator (Lite mode) build 49521"
  2713                           
  2714                           opt pagewidth 120
  2715                           
  2716                           	opt lm
  2717                           
  2718                           	processor	16F689
  2719                           clrc	macro
  2720                           	bcf	3,0
  2721                           	endm
  2722                           clrz	macro
  2723                           	bcf	3,2
  2724                           	endm
  2725                           setc	macro
  2726                           	bsf	3,0
  2727                           	endm
  2728                           setz	macro
  2729                           	bsf	3,2
  2730                           	endm
  2731                           skipc	macro
  2732                           	btfss	3,0
  2733                           	endm
  2734                           skipz	macro
  2735                           	btfss	3,2
  2736                           	endm
  2737                           skipnc	macro
  2738                           	btfsc	3,0
  2739                           	endm
  2740                           skipnz	macro
  2741                           	btfsc	3,2
  2742                           	endm
  2743                           indf	equ	0
  2744                           indf0	equ	0
  2745  03CD                     __ptext417:	;psect for function _EEPROM_getc
  2746                           opt subtitle "HI-TECH Software Omniscient Code Generator (Lite mode) build 49521"
  2747                           
  2748                           opt pagewidth 120
  2749                           
  2750  000E                     	__size_of_EEPROM_getc	equ	__end_of_EEPROM_getc-_EEPROM_getc
  2751                           opt subtitle "HI-TECH Software Omniscient Code Generator (Lite mode) build 49521"
  2752  03CD                     _EEPROM_getc:	
  2753                           opt subtitle "HI-TECH Software Omniscient Code Generator (Lite mode) build 49521"
  2754                           
  2755                           opt pagewidth 120
  2756  03CD  00F0               	movwf	(EEPROM_getc@address)
  2757                           opt subtitle "HI-TECH Software Omniscient Code Generator (Lite mode) build 49521"
  2758                           
  2759  03CE                     l1102:	
  2760                           opt subtitle "HI-TECH Software Omniscient Code Generator (Lite mode) build 49521"
  2761  03CE  0870               	movf	(EEPROM_getc@address),w
  2762  03CF  1283               	bcf	status, 5	;RP0=0, select bank2
  2763  03D0  1703               	bsf	status, 6	;RP1=1, select bank2
  2764  03D1  008D               	movwf	(269)^0100h	;volatile
  2765                           opt subtitle "HI-TECH Software Omniscient Code Generator (Lite mode) build 49521"
  2766                           
  2767  03D2                     l1104:	
  2768                           opt subtitle "HI-TECH Software Omniscient Code Generator (Lite mode) build 49521"
  2769  03D2  1683               	bsf	status, 5	;RP0=1, select bank3
  2770  03D3  1703               	bsf	status, 6	;RP1=1, select bank3
  2771  03D4  138C               	bcf	(396)^0180h,7	;volatile
  2772                           opt subtitle "HI-TECH Software Omniscient Code Generator (Lite mode) build 49521"
  2773                           
  2774  03D5                     l1106:	
  2775                           opt subtitle "HI-TECH Software Omniscient Code Generator (Lite mode) build 49521"
  2776  03D5  140C               	bsf	(396)^0180h,0	;volatile
  2777                           opt subtitle "HI-TECH Software Omniscient Code Generator (Lite mode) build 49521"
  2778                           
  2779  03D6  1283               	bcf	status, 5	;RP0=0, select bank2
  2780  03D7  1703               	bsf	status, 6	;RP1=1, select bank2
  2781  03D8  080C               	movf	(268)^0100h,w	;volatile
  2782  03D9  2BDA               	goto	l207
  2783                           opt subtitle "HI-TECH Software Omniscient Code Generator (Lite mode) build 49521"
  2784  03DA                     l1108:	
  2785                           opt subtitle "HI-TECH Software Omniscient Code Generator (Lite mode) build 49521"
  2786                           
  2787  03DA                     l207:	
  2788  03DA  0008               	return
  2789                           opt subtitle "HI-TECH Software Omniscient Code Generator (Lite mode) build 49521"
  2790                           
  2791  03DB                     	__end_of_EEPROM_getc:
  2792                           opt subtitle "HI-TECH Software Omniscient Code Generator (Lite mode) build 49521"
  2793                           
  2794                           opt pagewidth 120
  2795                           
  2796                           	opt lm
  2797                           
  2798                           	processor	16F689
  2799                           clrc	macro
  2800                           	bcf	3,0
  2801                           	endm
  2802                           clrz	macro
  2803                           	bcf	3,2
  2804                           	endm
  2805                           setc	macro
  2806                           	bsf	3,0
  2807                           	endm
  2808                           setz	macro
  2809                           	bsf	3,2
  2810                           	endm
  2811                           skipc	macro
  2812                           	btfss	3,0
  2813                           	endm
  2814                           skipz	macro
  2815                           	btfss	3,2
  2816                           	endm
  2817                           skipnc	macro
  2818                           	btfsc	3,0
  2819                           	endm
  2820                           skipnz	macro
  2821                           	btfsc	3,2
  2822                           	endm
  2823                           indf	equ	0
  2824                           indf0	equ	0
  2825                           pc	equ	2
  2826                           pcl	equ	2
  2827                           status	equ	3
  2828                           fsr	equ	4
  2829  0546                     __ptext418:	;psect for function _PairTX
  2830                           opt subtitle "HI-TECH Software Omniscient Code Generator (Lite mode) build 49521"
  2831                           
  2832                           opt pagewidth 120
  2833                           
  2834  0038                     	__size_of_PairTX	equ	__end_of_PairTX-_PairTX
  2835                           opt subtitle "HI-TECH Software Omniscient Code Generator (Lite mode) build 49521"
  2836  0546                     _PairTX:	
  2837                           opt subtitle "HI-TECH Software Omniscient Code Generator (Lite mode) build 49521"
  2838                           
  2839                           opt pagewidth 120
  2840                           
  2841  0546  00FB               	movwf	(PairTX@txBuff)
  2842                           opt subtitle "HI-TECH Software Omniscient Code Generator (Lite mode) build 49521"
  2843  0547                     l1284:	
  2844                           opt subtitle "HI-TECH Software Omniscient Code Generator (Lite mode) build 49521"
  2845                           
  2846  0547  087B               	movf	(PairTX@txBuff),w
  2847  0548  0084               	movwf	fsr0
  2848  0549  1383               	bcf	status, 7	;select IRP bank0
  2849  054A  1780               	bsf	indf+(7/8),(7)&7
  2850                           opt subtitle "HI-TECH Software Omniscient Code Generator (Lite mode) build 49521"
  2851                           
  2852  054B                     l1286:	
  2853                           opt subtitle "HI-TECH Software Omniscient Code Generator (Lite mode) build 49521"
  2854  054B  01FA               	clrf	(PairTX@cnt)
  2855                           opt subtitle "HI-TECH Software Omniscient Code Generator (Lite mode) build 49521"
  2856  054C                     l1288:	
  2857  054C  301D               	movlw	(01Dh)
  2858  054D  027A               	subwf	(PairTX@cnt),w
  2859  054E  1C03               	skipc
  2860  054F  2D51               	goto	u821
  2861  0550  2D52               	goto	u820
  2862  0551                     u821:
  2863  0551  2D54               	goto	l1292
  2864  0552                     u820:
  2865  0552  2D73               	goto	l1302
  2866                           opt subtitle "HI-TECH Software Omniscient Code Generator (Lite mode) build 49521"
  2867  0553                     l1290:	
  2868  0553  2D73               	goto	l1302
  2869                           opt subtitle "HI-TECH Software Omniscient Code Generator (Lite mode) build 49521"
  2870  0554                     l157:	
  2871                           opt subtitle "HI-TECH Software Omniscient Code Generator (Lite mode) build 49521"
  2872                           
  2873  0554                     l1292:	
  2874                           opt subtitle "HI-TECH Software Omniscient Code Generator (Lite mode) build 49521"
  2875  0554  087B               	movf	(PairTX@txBuff),w
  2876  0555  118A  257E  118A   	fcall	_TXData
  2877                           opt subtitle "HI-TECH Software Omniscient Code Generator (Lite mode) build 49521"
  2878                           
  2879  0558                     l1294:	
  2880                           opt subtitle "HI-TECH Software Omniscient Code Generator (Lite mode) build 49521"
  2881  0558  3040               	movlw	1<<((62)&7)
  2882  0559  1283               	bcf	status, 5	;RP0=0, select bank0
  2883  055A  1303               	bcf	status, 6	;RP1=0, select bank0
  2884  055B  0687               	xorwf	((62)/8),f
  2885                           opt subtitle "HI-TECH Software Omniscient Code Generator (Lite mode) build 49521"
  2886                           
  2887  055C                     l1296:	
  2888                           opt subtitle "HI-TECH Software Omniscient Code Generator (Lite mode) build 49521"
  2889                           
  2890  055C  3005               movlw  5
  2891  055D  00F9               movwf	((??_PairTX+0)+0+2),f
  2892  055E  300F               movlw	15
  2893  055F  00F8               movwf	((??_PairTX+0)+0+1),f
  2894  0560  30F4               	movlw	244
  2895  0561  00F7               movwf	((??_PairTX+0)+0),f
  2896  0562                     u997:
  2897  0562  0BF7               	decfsz	((??_PairTX+0)+0),f
  2898  0563  2D62               	goto	u997
  2899  0564  0BF8               	decfsz	((??_PairTX+0)+0+1),f
  2900  0565  2D62               	goto	u997
  2901  0566  0BF9               	decfsz	((??_PairTX+0)+0+2),f
  2902  0567  2D62               	goto	u997
  2903                           opt subtitle "HI-TECH Software Omniscient Code Generator (Lite mode) build 49521"
  2904                           
  2905                           opt pagewidth 120
  2906                           
  2907  0568                     l1298:	
  2908  0568  3001               	movlw	(01h)
  2909  0569  00F7               	movwf	(??_PairTX+0)+0
  2910  056A  0877               	movf	(??_PairTX+0)+0,w
  2911  056B  07FA               	addwf	(PairTX@cnt),f
  2912                           opt subtitle "HI-TECH Software Omniscient Code Generator (Lite mode) build 49521"
  2913  056C                     l1300:	
  2914  056C  301D               	movlw	(01Dh)
  2915  056D  027A               	subwf	(PairTX@cnt),w
  2916  056E  1C03               	skipc
  2917  056F  2D71               	goto	u831
  2918  0570  2D72               	goto	u830
  2919  0571                     u831:
  2920  0571  2D54               	goto	l1292
  2921  0572                     u830:
  2922  0572  2D73               	goto	l1302
  2923                           opt subtitle "HI-TECH Software Omniscient Code Generator (Lite mode) build 49521"
  2924  0573                     l158:	
  2925                           opt subtitle "HI-TECH Software Omniscient Code Generator (Lite mode) build 49521"
  2926                           
  2927  0573                     l1302:	
  2928                           opt subtitle "HI-TECH Software Omniscient Code Generator (Lite mode) build 49521"
  2929                           
  2930  0573  307F               	movlw	(07Fh)
  2931  0574  00F7               	movwf	(??_PairTX+0)+0
  2932  0575  087B               	movf	(PairTX@txBuff),w
  2933  0576  0084               	movwf	fsr0
  2934  0577  0877               	movf	(??_PairTX+0)+0,w
  2935  0578  1383               	bcf	status, 7	;select IRP bank0
  2936  0579  0580               	andwf	indf,f
  2937                           opt subtitle "HI-TECH Software Omniscient Code Generator (Lite mode) build 49521"
  2938                           
  2939  057A                     l1304:	
  2940                           opt subtitle "HI-TECH Software Omniscient Code Generator (Lite mode) build 49521"
  2941  057A  1283               	bcf	status, 5	;RP0=0, select bank0
  2942  057B  1303               	bcf	status, 6	;RP1=0, select bank0
  2943  057C  1307               	bcf	(62/8),(62)&7	;volatile
  2944                           opt subtitle "HI-TECH Software Omniscient Code Generator (Lite mode) build 49521"
  2945                           
  2946  057D                     l159:	
  2947  057D  0008               	return
  2948                           opt subtitle "HI-TECH Software Omniscient Code Generator (Lite mode) build 49521"
  2949                           
  2950  057E                     	__end_of_PairTX:
  2951                           opt subtitle "HI-TECH Software Omniscient Code Generator (Lite mode) build 49521"
  2952                           
  2953                           opt pagewidth 120
  2954                           
  2955                           	opt lm
  2956                           
  2957                           	processor	16F689
  2958                           clrc	macro
  2959                           	bcf	3,0
  2960                           	endm
  2961                           clrz	macro
  2962                           	bcf	3,2
  2963                           	endm
  2964                           setc	macro
  2965                           	bsf	3,0
  2966                           	endm
  2967                           setz	macro
  2968                           	bsf	3,2
  2969                           	endm
  2970                           skipc	macro
  2971                           	btfss	3,0
  2972                           	endm
  2973                           skipz	macro
  2974                           	btfss	3,2
  2975                           	endm
  2976                           skipnc	macro
  2977                           	btfsc	3,0
  2978                           	endm
  2979                           skipnz	macro
  2980                           	btfsc	3,2
  2981                           	endm
  2982                           indf	equ	0
  2983                           indf0	equ	0
  2984                           pc	equ	2
  2985                           pcl	equ	2
  2986                           status	equ	3
  2987                           fsr	equ	4
  2988                           fsr0	equ	4
  2989                           c	equ	1
  2990                           z	equ	0
  2991                           pclath	equ	10
  2992                           # 46 "C:\Program Files (x86)\Microchip\xc8\v1.12\include\pic16f689.h"
  2993  057E                     __ptext419:	;psect for function _TXData
  2994                           opt subtitle "HI-TECH Software Omniscient Code Generator (Lite mode) build 49521"
  2995                           
  2996                           opt pagewidth 120
  2997                           
  2998  003A                     	__size_of_TXData	equ	__end_of_TXData-_TXData
  2999                           opt subtitle "HI-TECH Software Omniscient Code Generator (Lite mode) build 49521"
  3000  057E                     _TXData:	
  3001                           opt subtitle "HI-TECH Software Omniscient Code Generator (Lite mode) build 49521"
  3002                           
  3003                           opt pagewidth 120
  3004                           
  3005  057E  00F5               	movwf	(TXData@txBuff)
  3006                           opt subtitle "HI-TECH Software Omniscient Code Generator (Lite mode) build 49521"
  3007  057F                     l1260:	
  3008                           opt subtitle "HI-TECH Software Omniscient Code Generator (Lite mode) build 49521"
  3009                           
  3010  057F  118A  23C5  118A   	fcall	_StartTX
  3011                           opt subtitle "HI-TECH Software Omniscient Code Generator (Lite mode) build 49521"
  3012                           
  3013  0582                     l1262:	
  3014                           opt subtitle "HI-TECH Software Omniscient Code Generator (Lite mode) build 49521"
  3015                           
  3016  0582  3042               movlw	66
  3017  0583  00F4               movwf	(??_TXData+0)+0,f
  3018  0584                     u1007:
  3019  0584  0BF4               decfsz	(??_TXData+0)+0,f
  3020  0585  2D84               	goto	u1007
  3021  0586  0000               	nop
  3022                           opt subtitle "HI-TECH Software Omniscient Code Generator (Lite mode) build 49521"
  3023                           
  3024                           opt pagewidth 120
  3025                           
  3026  0587                     l1264:	
  3027                           opt subtitle "HI-TECH Software Omniscient Code Generator (Lite mode) build 49521"
  3028  0587  30AA               	movlw	(0AAh)
  3029  0588  118A  244D  118A   	fcall	_SendFSK
  3030                           opt subtitle "HI-TECH Software Omniscient Code Generator (Lite mode) build 49521"
  3031                           
  3032  058B                     l1266:	
  3033                           opt subtitle "HI-TECH Software Omniscient Code Generator (Lite mode) build 49521"
  3034  058B  302D               	movlw	(02Dh)
  3035  058C  118A  244D  118A   	fcall	_SendFSK
  3036                           opt subtitle "HI-TECH Software Omniscient Code Generator (Lite mode) build 49521"
  3037                           
  3038  058F                     l1268:	
  3039                           opt subtitle "HI-TECH Software Omniscient Code Generator (Lite mode) build 49521"
  3040  058F  30D4               	movlw	(0D4h)
  3041  0590  118A  244D  118A   	fcall	_SendFSK
  3042                           opt subtitle "HI-TECH Software Omniscient Code Generator (Lite mode) build 49521"
  3043                           
  3044  0593                     l1270:	
  3045                           opt subtitle "HI-TECH Software Omniscient Code Generator (Lite mode) build 49521"
  3046  0593  01F6               	clrf	(TXData@cnt)
  3047  0594  3009               	movlw	(09h)
  3048  0595  0276               	subwf	(TXData@cnt),w
  3049  0596  1C03               	skipc
  3050  0597  2D99               	goto	u801
  3051  0598  2D9A               	goto	u800
  3052  0599                     u801:
  3053  0599  2D9C               	goto	l1274
  3054  059A                     u800:
  3055  059A  2DB1               	goto	l1280
  3056                           opt subtitle "HI-TECH Software Omniscient Code Generator (Lite mode) build 49521"
  3057  059B                     l1272:	
  3058  059B  2DB1               	goto	l1280
  3059                           opt subtitle "HI-TECH Software Omniscient Code Generator (Lite mode) build 49521"
  3060  059C                     l149:	
  3061                           opt subtitle "HI-TECH Software Omniscient Code Generator (Lite mode) build 49521"
  3062                           
  3063  059C                     l1274:	
  3064                           opt subtitle "HI-TECH Software Omniscient Code Generator (Lite mode) build 49521"
  3065  059C  0876               	movf	(TXData@cnt),w
  3066  059D  0775               	addwf	(TXData@txBuff),w
  3067  059E  00F4               	movwf	(??_TXData+0)+0
  3068  059F  0874               	movf	0+(??_TXData+0)+0,w
  3069  05A0  0084               	movwf	fsr0
  3070  05A1  1383               	bcf	status, 7	;select IRP bank0
  3071  05A2  0800               	movf	indf,w
  3072  05A3  118A  24BC  118A   	fcall	_SendManFSK
  3073                           opt subtitle "HI-TECH Software Omniscient Code Generator (Lite mode) build 49521"
  3074                           
  3075  05A6                     l1276:	
  3076  05A6  3001               	movlw	(01h)
  3077  05A7  00F4               	movwf	(??_TXData+0)+0
  3078  05A8  0874               	movf	(??_TXData+0)+0,w
  3079  05A9  07F6               	addwf	(TXData@cnt),f
  3080                           opt subtitle "HI-TECH Software Omniscient Code Generator (Lite mode) build 49521"
  3081  05AA                     l1278:	
  3082  05AA  3009               	movlw	(09h)
  3083  05AB  0276               	subwf	(TXData@cnt),w
  3084  05AC  1C03               	skipc
  3085  05AD  2DAF               	goto	u811
  3086  05AE  2DB0               	goto	u810
  3087  05AF                     u811:
  3088  05AF  2D9C               	goto	l1274
  3089  05B0                     u810:
  3090  05B0  2DB1               	goto	l1280
  3091                           opt subtitle "HI-TECH Software Omniscient Code Generator (Lite mode) build 49521"
  3092  05B1                     l150:	
  3093                           opt subtitle "HI-TECH Software Omniscient Code Generator (Lite mode) build 49521"
  3094                           
  3095  05B1                     l1280:	
  3096                           opt subtitle "HI-TECH Software Omniscient Code Generator (Lite mode) build 49521"
  3097                           
  3098  05B1  118A  23C0  118A   	fcall	_WaitFSK
  3099                           opt subtitle "HI-TECH Software Omniscient Code Generator (Lite mode) build 49521"
  3100                           
  3101  05B4                     l1282:	
  3102                           opt subtitle "HI-TECH Software Omniscient Code Generator (Lite mode) build 49521"
  3103  05B4  118A  23DB  118A   	fcall	_StopTX
  3104                           opt subtitle "HI-TECH Software Omniscient Code Generator (Lite mode) build 49521"
  3105                           
  3106  05B7                     l151:	
  3107  05B7  0008               	return
  3108                           opt subtitle "HI-TECH Software Omniscient Code Generator (Lite mode) build 49521"
  3109                           
  3110  05B8                     	__end_of_TXData:
  3111                           opt subtitle "HI-TECH Software Omniscient Code Generator (Lite mode) build 49521"
  3112                           
  3113                           opt pagewidth 120
  3114                           
  3115                           	opt lm
  3116                           
  3117                           	processor	16F689
  3118                           clrc	macro
  3119                           	bcf	3,0
  3120                           	endm
  3121                           clrz	macro
  3122                           	bcf	3,2
  3123                           	endm
  3124                           setc	macro
  3125                           	bsf	3,0
  3126                           	endm
  3127                           setz	macro
  3128                           	bsf	3,2
  3129                           	endm
  3130                           skipc	macro
  3131                           	btfss	3,0
  3132                           	endm
  3133                           skipz	macro
  3134                           	btfss	3,2
  3135                           	endm
  3136                           skipnc	macro
  3137                           	btfsc	3,0
  3138                           	endm
  3139                           skipnz	macro
  3140                           	btfsc	3,2
  3141                           	endm
  3142                           indf	equ	0
  3143                           indf0	equ	0
  3144                           pc	equ	2
  3145  03C5                     __ptext420:	;psect for function _StartTX
  3146                           opt subtitle "HI-TECH Software Omniscient Code Generator (Lite mode) build 49521"
  3147                           
  3148                           opt pagewidth 120
  3149                           
  3150  0008                     	__size_of_StartTX	equ	__end_of_StartTX-_StartTX
  3151                           opt subtitle "HI-TECH Software Omniscient Code Generator (Lite mode) build 49521"
  3152  03C5                     _StartTX:	
  3153                           opt subtitle "HI-TECH Software Omniscient Code Generator (Lite mode) build 49521"
  3154                           
  3155                           opt pagewidth 120
  3156                           
  3157  03C5                     l1256:	
  3158                           opt subtitle "HI-TECH Software Omniscient Code Generator (Lite mode) build 49521"
  3159  03C5  3039               	movlw	low(0C039h)
  3160  03C6  00F0               	movwf	(?_SendCTRL)
  3161  03C7  30C0               	movlw	high(0C039h)
  3162  03C8  00F1               	movwf	((?_SendCTRL))+1
  3163  03C9  118A  246E  118A   	fcall	_SendCTRL
  3164                           opt subtitle "HI-TECH Software Omniscient Code Generator (Lite mode) build 49521"
  3165                           
  3166  03CC                     l165:	
  3167  03CC  0008               	return
  3168                           opt subtitle "HI-TECH Software Omniscient Code Generator (Lite mode) build 49521"
  3169                           
  3170  03CD                     	__end_of_StartTX:
  3171                           opt subtitle "HI-TECH Software Omniscient Code Generator (Lite mode) build 49521"
  3172                           
  3173                           opt pagewidth 120
  3174                           
  3175                           	opt lm
  3176                           
  3177                           	processor	16F689
  3178                           clrc	macro
  3179                           	bcf	3,0
  3180                           	endm
  3181                           clrz	macro
  3182                           	bcf	3,2
  3183                           	endm
  3184                           setc	macro
  3185                           	bsf	3,0
  3186                           	endm
  3187                           setz	macro
  3188                           	bsf	3,2
  3189                           	endm
  3190                           skipc	macro
  3191                           	btfss	3,0
  3192                           	endm
  3193                           skipz	macro
  3194                           	btfss	3,2
  3195                           	endm
  3196                           skipnc	macro
  3197                           	btfsc	3,0
  3198                           	endm
  3199                           skipnz	macro
  3200                           	btfsc	3,2
  3201                           	endm
  3202                           indf	equ	0
  3203                           indf0	equ	0
  3204                           pc	equ	2
  3205                           pcl	equ	2
  3206  044D                     __ptext421:	;psect for function _SendFSK
  3207                           opt subtitle "HI-TECH Software Omniscient Code Generator (Lite mode) build 49521"
  3208                           
  3209                           opt pagewidth 120
  3210                           
  3211  0021                     	__size_of_SendFSK	equ	__end_of_SendFSK-_SendFSK
  3212                           opt subtitle "HI-TECH Software Omniscient Code Generator (Lite mode) build 49521"
  3213  044D                     _SendFSK:	
  3214                           opt subtitle "HI-TECH Software Omniscient Code Generator (Lite mode) build 49521"
  3215                           
  3216                           opt pagewidth 120
  3217  044D  00F2               	movwf	(SendFSK@data)
  3218                           opt subtitle "HI-TECH Software Omniscient Code Generator (Lite mode) build 49521"
  3219                           
  3220  044E                     l1196:	
  3221                           opt subtitle "HI-TECH Software Omniscient Code Generator (Lite mode) build 49521"
  3222  044E  3008               	movlw	(08h)
  3223  044F  00F1               	movwf	(??_SendFSK+0)+0
  3224  0450  0871               	movf	(??_SendFSK+0)+0,w
  3225  0451  00F3               	movwf	(SendFSK@cnt)
  3226                           opt subtitle "HI-TECH Software Omniscient Code Generator (Lite mode) build 49521"
  3227                           
  3228  0452  2C64               	goto	l1204
  3229                           opt subtitle "HI-TECH Software Omniscient Code Generator (Lite mode) build 49521"
  3230  0453                     l188:	
  3231                           opt subtitle "HI-TECH Software Omniscient Code Generator (Lite mode) build 49521"
  3232                           
  3233                           opt pagewidth 120
  3234  0453  1FF2               	btfss	(SendFSK@data),(7)&7
  3235  0454  2C56               	goto	u721
  3236  0455  2C57               	goto	u720
  3237  0456                     u721:
  3238  0456  2C5C               	goto	l1200
  3239  0457                     u720:
  3240                           opt subtitle "HI-TECH Software Omniscient Code Generator (Lite mode) build 49521"
  3241                           
  3242  0457                     l1198:	
  3243                           opt subtitle "HI-TECH Software Omniscient Code Generator (Lite mode) build 49521"
  3244  0457  3001               	movlw	(01h)
  3245  0458  118A  23F9  118A   	fcall	_Sendbit
  3246                           opt subtitle "HI-TECH Software Omniscient Code Generator (Lite mode) build 49521"
  3247                           
  3248  045B  2C61               	goto	l1202
  3249                           opt subtitle "HI-TECH Software Omniscient Code Generator (Lite mode) build 49521"
  3250  045C                     l189:	
  3251                           opt subtitle "HI-TECH Software Omniscient Code Generator (Lite mode) build 49521"
  3252                           
  3253  045C                     l1200:	
  3254                           opt subtitle "HI-TECH Software Omniscient Code Generator (Lite mode) build 49521"
  3255  045C  3000               	movlw	(0)
  3256  045D  118A  23F9  118A   	fcall	_Sendbit
  3257  0460  2C61               	goto	l1202
  3258                           opt subtitle "HI-TECH Software Omniscient Code Generator (Lite mode) build 49521"
  3259                           
  3260  0461                     l190:	
  3261                           opt subtitle "HI-TECH Software Omniscient Code Generator (Lite mode) build 49521"
  3262                           
  3263  0461                     l1202:	
  3264                           opt subtitle "HI-TECH Software Omniscient Code Generator (Lite mode) build 49521"
  3265                           
  3266  0461  1003               	clrc
  3267  0462  0DF2               	rlf	(SendFSK@data),f
  3268                           opt subtitle "HI-TECH Software Omniscient Code Generator (Lite mode) build 49521"
  3269  0463  2C64               	goto	l1204
  3270                           opt subtitle "HI-TECH Software Omniscient Code Generator (Lite mode) build 49521"
  3271                           
  3272  0464                     l187:	
  3273                           opt subtitle "HI-TECH Software Omniscient Code Generator (Lite mode) build 49521"
  3274                           
  3275  0464                     l1204:	
  3276  0464  3001               	movlw	low(01h)
  3277  0465  02F3               	subwf	(SendFSK@cnt),f
  3278  0466  0873               	movf	((SendFSK@cnt)),w
  3279  0467  3AFF               	xorlw	0FFh
  3280  0468  1D03               	skipz
  3281  0469  2C6B               	goto	u731
  3282  046A  2C6C               	goto	u730
  3283  046B                     u731:
  3284  046B  2C53               	goto	l188
  3285  046C                     u730:
  3286  046C  2C6D               	goto	l192
  3287                           opt subtitle "HI-TECH Software Omniscient Code Generator (Lite mode) build 49521"
  3288  046D                     l191:	
  3289                           opt subtitle "HI-TECH Software Omniscient Code Generator (Lite mode) build 49521"
  3290                           
  3291  046D                     l192:	
  3292  046D  0008               	return
  3293                           opt subtitle "HI-TECH Software Omniscient Code Generator (Lite mode) build 49521"
  3294                           
  3295  046E                     	__end_of_SendFSK:
  3296                           opt subtitle "HI-TECH Software Omniscient Code Generator (Lite mode) build 49521"
  3297                           
  3298                           opt pagewidth 120
  3299                           
  3300                           	opt lm
  3301                           
  3302                           	processor	16F689
  3303                           clrc	macro
  3304                           	bcf	3,0
  3305                           	endm
  3306                           clrz	macro
  3307                           	bcf	3,2
  3308                           	endm
  3309                           setc	macro
  3310                           	bsf	3,0
  3311                           	endm
  3312                           setz	macro
  3313                           	bsf	3,2
  3314                           	endm
  3315                           skipc	macro
  3316                           	btfss	3,0
  3317                           	endm
  3318                           skipz	macro
  3319                           	btfss	3,2
  3320                           	endm
  3321                           skipnc	macro
  3322                           	btfsc	3,0
  3323                           	endm
  3324                           skipnz	macro
  3325                           	btfsc	3,2
  3326                           	endm
  3327                           indf	equ	0
  3328                           indf0	equ	0
  3329                           pc	equ	2
  3330                           pcl	equ	2
  3331  04BC                     __ptext422:	;psect for function _SendManFSK
  3332                           opt subtitle "HI-TECH Software Omniscient Code Generator (Lite mode) build 49521"
  3333                           
  3334                           opt pagewidth 120
  3335                           
  3336  0029                     	__size_of_SendManFSK	equ	__end_of_SendManFSK-_SendManFSK
  3337                           opt subtitle "HI-TECH Software Omniscient Code Generator (Lite mode) build 49521"
  3338  04BC                     _SendManFSK:	
  3339                           opt subtitle "HI-TECH Software Omniscient Code Generator (Lite mode) build 49521"
  3340                           
  3341                           opt pagewidth 120
  3342  04BC  00F2               	movwf	(SendManFSK@data)
  3343                           opt subtitle "HI-TECH Software Omniscient Code Generator (Lite mode) build 49521"
  3344                           
  3345  04BD                     l1206:	
  3346                           opt subtitle "HI-TECH Software Omniscient Code Generator (Lite mode) build 49521"
  3347  04BD  3008               	movlw	(08h)
  3348  04BE  00F1               	movwf	(??_SendManFSK+0)+0
  3349  04BF  0871               	movf	(??_SendManFSK+0)+0,w
  3350  04C0  00F3               	movwf	(SendManFSK@cnt)
  3351                           opt subtitle "HI-TECH Software Omniscient Code Generator (Lite mode) build 49521"
  3352                           
  3353  04C1  2CDB               	goto	l1214
  3354                           opt subtitle "HI-TECH Software Omniscient Code Generator (Lite mode) build 49521"
  3355  04C2                     l180:	
  3356                           opt subtitle "HI-TECH Software Omniscient Code Generator (Lite mode) build 49521"
  3357                           
  3358                           opt pagewidth 120
  3359  04C2  1FF2               	btfss	(SendManFSK@data),(7)&7
  3360  04C3  2CC5               	goto	u741
  3361  04C4  2CC6               	goto	u740
  3362  04C5                     u741:
  3363  04C5  2CCF               	goto	l1210
  3364  04C6                     u740:
  3365                           opt subtitle "HI-TECH Software Omniscient Code Generator (Lite mode) build 49521"
  3366                           
  3367  04C6                     l1208:	
  3368                           opt subtitle "HI-TECH Software Omniscient Code Generator (Lite mode) build 49521"
  3369  04C6  3001               	movlw	(01h)
  3370  04C7  118A  23F9  118A   	fcall	_Sendbit
  3371                           opt subtitle "HI-TECH Software Omniscient Code Generator (Lite mode) build 49521"
  3372                           
  3373  04CA  3000               	movlw	(0)
  3374  04CB  118A  23F9  118A   	fcall	_Sendbit
  3375                           opt subtitle "HI-TECH Software Omniscient Code Generator (Lite mode) build 49521"
  3376                           
  3377  04CE  2CD8               	goto	l1212
  3378                           opt subtitle "HI-TECH Software Omniscient Code Generator (Lite mode) build 49521"
  3379  04CF                     l181:	
  3380                           opt subtitle "HI-TECH Software Omniscient Code Generator (Lite mode) build 49521"
  3381                           
  3382  04CF                     l1210:	
  3383                           opt subtitle "HI-TECH Software Omniscient Code Generator (Lite mode) build 49521"
  3384  04CF  3000               	movlw	(0)
  3385  04D0  118A  23F9  118A   	fcall	_Sendbit
  3386                           opt subtitle "HI-TECH Software Omniscient Code Generator (Lite mode) build 49521"
  3387                           
  3388  04D3  3001               	movlw	(01h)
  3389  04D4  118A  23F9  118A   	fcall	_Sendbit
  3390  04D7  2CD8               	goto	l1212
  3391                           opt subtitle "HI-TECH Software Omniscient Code Generator (Lite mode) build 49521"
  3392                           
  3393  04D8                     l182:	
  3394                           opt subtitle "HI-TECH Software Omniscient Code Generator (Lite mode) build 49521"
  3395                           
  3396  04D8                     l1212:	
  3397                           opt subtitle "HI-TECH Software Omniscient Code Generator (Lite mode) build 49521"
  3398                           
  3399  04D8  1003               	clrc
  3400  04D9  0DF2               	rlf	(SendManFSK@data),f
  3401                           opt subtitle "HI-TECH Software Omniscient Code Generator (Lite mode) build 49521"
  3402  04DA  2CDB               	goto	l1214
  3403                           opt subtitle "HI-TECH Software Omniscient Code Generator (Lite mode) build 49521"
  3404                           
  3405  04DB                     l179:	
  3406                           opt subtitle "HI-TECH Software Omniscient Code Generator (Lite mode) build 49521"
  3407                           
  3408  04DB                     l1214:	
  3409  04DB  3001               	movlw	low(01h)
  3410  04DC  02F3               	subwf	(SendManFSK@cnt),f
  3411  04DD  0873               	movf	((SendManFSK@cnt)),w
  3412  04DE  3AFF               	xorlw	0FFh
  3413  04DF  1D03               	skipz
  3414  04E0  2CE2               	goto	u751
  3415  04E1  2CE3               	goto	u750
  3416  04E2                     u751:
  3417  04E2  2CC2               	goto	l180
  3418  04E3                     u750:
  3419  04E3  2CE4               	goto	l184
  3420                           opt subtitle "HI-TECH Software Omniscient Code Generator (Lite mode) build 49521"
  3421  04E4                     l183:	
  3422                           opt subtitle "HI-TECH Software Omniscient Code Generator (Lite mode) build 49521"
  3423                           
  3424  04E4                     l184:	
  3425  04E4  0008               	return
  3426                           opt subtitle "HI-TECH Software Omniscient Code Generator (Lite mode) build 49521"
  3427                           
  3428  04E5                     	__end_of_SendManFSK:
  3429                           opt subtitle "HI-TECH Software Omniscient Code Generator (Lite mode) build 49521"
  3430                           
  3431                           opt pagewidth 120
  3432                           
  3433                           	opt lm
  3434                           
  3435                           	processor	16F689
  3436                           clrc	macro
  3437                           	bcf	3,0
  3438                           	endm
  3439                           clrz	macro
  3440                           	bcf	3,2
  3441                           	endm
  3442                           setc	macro
  3443                           	bsf	3,0
  3444                           	endm
  3445                           setz	macro
  3446                           	bsf	3,2
  3447                           	endm
  3448                           skipc	macro
  3449                           	btfss	3,0
  3450                           	endm
  3451                           skipz	macro
  3452                           	btfss	3,2
  3453                           	endm
  3454                           skipnc	macro
  3455                           	btfsc	3,0
  3456                           	endm
  3457                           skipnz	macro
  3458                           	btfsc	3,2
  3459                           	endm
  3460                           indf	equ	0
  3461                           indf0	equ	0
  3462  03C0                     __ptext423:	;psect for function _WaitFSK
  3463                           opt subtitle "HI-TECH Software Omniscient Code Generator (Lite mode) build 49521"
  3464                           
  3465                           opt pagewidth 120
  3466                           
  3467  0005                     	__size_of_WaitFSK	equ	__end_of_WaitFSK-_WaitFSK
  3468                           opt subtitle "HI-TECH Software Omniscient Code Generator (Lite mode) build 49521"
  3469  03C0                     _WaitFSK:	
  3470                           opt subtitle "HI-TECH Software Omniscient Code Generator (Lite mode) build 49521"
  3471                           
  3472                           opt pagewidth 120
  3473                           
  3474  03C0                     l1110:	
  3475                           opt subtitle "HI-TECH Software Omniscient Code Generator (Lite mode) build 49521"
  3476  03C0                     wla: ;# 
  3477                           opt subtitle "HI-TECH Software Omniscient Code Generator (Lite mode) build 49521"
  3478                           
  3479  03C0  1D05               BTFSS 0x5, 0x2 ;# 
  3480                           opt subtitle "HI-TECH Software Omniscient Code Generator (Lite mode) build 49521"
  3481                           
  3482  03C1  2BC0               GOTO wla ;# 
  3483                           opt subtitle "HI-TECH Software Omniscient Code Generator (Lite mode) build 49521"
  3484                           
  3485  03C2                     wlb: ;# 
  3486                           opt subtitle "HI-TECH Software Omniscient Code Generator (Lite mode) build 49521"
  3487                           
  3488  03C2  1905               BTFSC 0x5, 0x2 ;# 
  3489                           opt subtitle "HI-TECH Software Omniscient Code Generator (Lite mode) build 49521"
  3490                           
  3491  03C3  2BC2               GOTO wlb ;# 
  3492                           opt subtitle "HI-TECH Software Omniscient Code Generator (Lite mode) build 49521"
  3493                           
  3494                           opt pagewidth 120
  3495  03C4                     l198:	
  3496  03C4  0008               	return
  3497                           opt subtitle "HI-TECH Software Omniscient Code Generator (Lite mode) build 49521"
  3498                           
  3499  03C5                     	__end_of_WaitFSK:
  3500                           opt subtitle "HI-TECH Software Omniscient Code Generator (Lite mode) build 49521"
  3501                           
  3502                           opt pagewidth 120
  3503                           
  3504                           	opt lm
  3505                           
  3506                           	processor	16F689
  3507                           clrc	macro
  3508                           	bcf	3,0
  3509                           	endm
  3510                           clrz	macro
  3511                           	bcf	3,2
  3512                           	endm
  3513                           setc	macro
  3514                           	bsf	3,0
  3515                           	endm
  3516                           setz	macro
  3517                           	bsf	3,2
  3518                           	endm
  3519                           skipc	macro
  3520                           	btfss	3,0
  3521                           	endm
  3522                           skipz	macro
  3523                           	btfss	3,2
  3524                           	endm
  3525                           skipnc	macro
  3526                           	btfsc	3,0
  3527                           	endm
  3528                           skipnz	macro
  3529                           	btfsc	3,2
  3530                           	endm
  3531                           indf	equ	0
  3532                           indf0	equ	0
  3533                           pc	equ	2
  3534  03DB                     __ptext424:	;psect for function _StopTX
  3535                           opt subtitle "HI-TECH Software Omniscient Code Generator (Lite mode) build 49521"
  3536                           
  3537                           opt pagewidth 120
  3538                           
  3539  000F                     	__size_of_StopTX	equ	__end_of_StopTX-_StopTX
  3540                           opt subtitle "HI-TECH Software Omniscient Code Generator (Lite mode) build 49521"
  3541  03DB                     _StopTX:	
  3542                           opt subtitle "HI-TECH Software Omniscient Code Generator (Lite mode) build 49521"
  3543                           
  3544                           opt pagewidth 120
  3545                           
  3546  03DB                     l1258:	
  3547                           opt subtitle "HI-TECH Software Omniscient Code Generator (Lite mode) build 49521"
  3548  03DB  3001               	movlw	low(0C001h)
  3549  03DC  00F0               	movwf	(?_SendCTRL)
  3550  03DD  30C0               	movlw	high(0C001h)
  3551  03DE  00F1               	movwf	((?_SendCTRL))+1
  3552  03DF  118A  246E  118A   	fcall	_SendCTRL
  3553                           opt subtitle "HI-TECH Software Omniscient Code Generator (Lite mode) build 49521"
  3554                           
  3555  03E2  3000               	movlw	low(0C400h)
  3556  03E3  00F0               	movwf	(?_SendCTRL)
  3557  03E4  30C4               	movlw	high(0C400h)
  3558  03E5  00F1               	movwf	((?_SendCTRL))+1
  3559  03E6  118A  246E  118A   	fcall	_SendCTRL
  3560                           opt subtitle "HI-TECH Software Omniscient Code Generator (Lite mode) build 49521"
  3561                           
  3562  03E9                     l168:	
  3563  03E9  0008               	return
  3564                           opt subtitle "HI-TECH Software Omniscient Code Generator (Lite mode) build 49521"
  3565                           
  3566  03EA                     	__end_of_StopTX:
  3567                           opt subtitle "HI-TECH Software Omniscient Code Generator (Lite mode) build 49521"
  3568                           
  3569                           opt pagewidth 120
  3570                           
  3571                           	opt lm
  3572                           
  3573                           	processor	16F689
  3574                           clrc	macro
  3575                           	bcf	3,0
  3576                           	endm
  3577                           clrz	macro
  3578                           	bcf	3,2
  3579                           	endm
  3580                           setc	macro
  3581                           	bsf	3,0
  3582                           	endm
  3583                           setz	macro
  3584                           	bsf	3,2
  3585                           	endm
  3586                           skipc	macro
  3587                           	btfss	3,0
  3588                           	endm
  3589                           skipz	macro
  3590                           	btfss	3,2
  3591                           	endm
  3592                           skipnc	macro
  3593                           	btfsc	3,0
  3594                           	endm
  3595                           skipnz	macro
  3596                           	btfsc	3,2
  3597                           	endm
  3598                           indf	equ	0
  3599                           indf0	equ	0
  3600                           pc	equ	2
  3601                           pcl	equ	2
  3602  046E                     __ptext425:	;psect for function _SendCTRL
  3603                           opt subtitle "HI-TECH Software Omniscient Code Generator (Lite mode) build 49521"
  3604                           
  3605                           opt pagewidth 120
  3606                           
  3607  0027                     	__size_of_SendCTRL	equ	__end_of_SendCTRL-_SendCTRL
  3608                           opt subtitle "HI-TECH Software Omniscient Code Generator (Lite mode) build 49521"
  3609  046E                     _SendCTRL:	
  3610                           opt subtitle "HI-TECH Software Omniscient Code Generator (Lite mode) build 49521"
  3611                           
  3612                           opt pagewidth 120
  3613                           
  3614  046E                     l1216:	
  3615                           opt subtitle "HI-TECH Software Omniscient Code Generator (Lite mode) build 49521"
  3616  046E  3010               	movlw	(010h)
  3617  046F  00F2               	movwf	(??_SendCTRL+0)+0
  3618  0470  0872               	movf	(??_SendCTRL+0)+0,w
  3619  0471  00F3               	movwf	(SendCTRL@cnt)
  3620                           opt subtitle "HI-TECH Software Omniscient Code Generator (Lite mode) build 49521"
  3621                           
  3622  0472                     l1218:	
  3623                           opt subtitle "HI-TECH Software Omniscient Code Generator (Lite mode) build 49521"
  3624  0472  1283               	bcf	status, 5	;RP0=0, select bank0
  3625  0473  1303               	bcf	status, 6	;RP1=0, select bank0
  3626  0474  1287               	bcf	(61/8),(61)&7	;volatile
  3627                           opt subtitle "HI-TECH Software Omniscient Code Generator (Lite mode) build 49521"
  3628                           
  3629  0475                     l1220:	
  3630                           opt subtitle "HI-TECH Software Omniscient Code Generator (Lite mode) build 49521"
  3631  0475  1306               	bcf	(54/8),(54)&7	;volatile
  3632                           opt subtitle "HI-TECH Software Omniscient Code Generator (Lite mode) build 49521"
  3633                           
  3634  0476  2C8B               	goto	l1226
  3635                           opt subtitle "HI-TECH Software Omniscient Code Generator (Lite mode) build 49521"
  3636  0477                     l172:	
  3637                           opt subtitle "HI-TECH Software Omniscient Code Generator (Lite mode) build 49521"
  3638                           
  3639                           opt pagewidth 120
  3640  0477  1FF1               	btfss	(SendCTRL@tosend+1),(15)&7
  3641  0478  2C7A               	goto	u761
  3642  0479  2C7B               	goto	u760
  3643  047A                     u761:
  3644  047A  2C7D               	goto	l173
  3645  047B                     u760:
  3646                           opt subtitle "HI-TECH Software Omniscient Code Generator (Lite mode) build 49521"
  3647  047B                     l1222:	
  3648  047B  1786               	bsf	(55/8),(55)&7	;volatile
  3649  047C  2C7E               	goto	l174
  3650                           opt subtitle "HI-TECH Software Omniscient Code Generator (Lite mode) build 49521"
  3651  047D                     l173:	
  3652  047D  1386               	bcf	(55/8),(55)&7	;volatile
  3653                           opt subtitle "HI-TECH Software Omniscient Code Generator (Lite mode) build 49521"
  3654  047E                     l174:	
  3655                           opt subtitle "HI-TECH Software Omniscient Code Generator (Lite mode) build 49521"
  3656                           
  3657  047E  1706               	bsf	(54/8),(54)&7	;volatile
  3658                           opt subtitle "HI-TECH Software Omniscient Code Generator (Lite mode) build 49521"
  3659                           
  3660                           opt pagewidth 120
  3661  047F  2C80               	nop2	;2 cycle nop
  3662                           opt subtitle "HI-TECH Software Omniscient Code Generator (Lite mode) build 49521"
  3663                           
  3664                           opt pagewidth 120
  3665                           
  3666  0480  1283               	bcf	status, 5	;RP0=0, select bank0
  3667  0481  1303               	bcf	status, 6	;RP1=0, select bank0
  3668  0482  1306               	bcf	(54/8),(54)&7	;volatile
  3669                           opt subtitle "HI-TECH Software Omniscient Code Generator (Lite mode) build 49521"
  3670                           
  3671  0483                     l1224:	
  3672                           opt subtitle "HI-TECH Software Omniscient Code Generator (Lite mode) build 49521"
  3673  0483  3001               	movlw	01h
  3674                           opt subtitle "HI-TECH Software Omniscient Code Generator (Lite mode) build 49521"
  3675  0484                     u775:
  3676  0484  1003               	clrc
  3677  0485  0DF0               	rlf	(SendCTRL@tosend),f
  3678  0486  0DF1               	rlf	(SendCTRL@tosend+1),f
  3679  0487  3EFF               	addlw	-1
  3680  0488  1D03               	skipz
  3681  0489  2C84               	goto	u775
  3682  048A  2C8B               	goto	l1226
  3683                           opt subtitle "HI-TECH Software Omniscient Code Generator (Lite mode) build 49521"
  3684                           
  3685  048B                     l171:	
  3686                           opt subtitle "HI-TECH Software Omniscient Code Generator (Lite mode) build 49521"
  3687                           
  3688  048B                     l1226:	
  3689  048B  3001               	movlw	low(01h)
  3690  048C  02F3               	subwf	(SendCTRL@cnt),f
  3691  048D  0873               	movf	((SendCTRL@cnt)),w
  3692  048E  3AFF               	xorlw	0FFh
  3693  048F  1D03               	skipz
  3694  0490  2C92               	goto	u781
  3695  0491  2C93               	goto	u780
  3696  0492                     u781:
  3697  0492  2C77               	goto	l172
  3698  0493                     u780:
  3699                           opt subtitle "HI-TECH Software Omniscient Code Generator (Lite mode) build 49521"
  3700  0493                     l175:	
  3701                           opt subtitle "HI-TECH Software Omniscient Code Generator (Lite mode) build 49521"
  3702                           
  3703                           opt pagewidth 120
  3704  0493  1687               	bsf	(61/8),(61)&7	;volatile
  3705                           opt subtitle "HI-TECH Software Omniscient Code Generator (Lite mode) build 49521"
  3706                           
  3707  0494                     l176:	
  3708  0494  0008               	return
  3709                           opt subtitle "HI-TECH Software Omniscient Code Generator (Lite mode) build 49521"
  3710                           
  3711  0495                     	__end_of_SendCTRL:
  3712                           opt subtitle "HI-TECH Software Omniscient Code Generator (Lite mode) build 49521"
  3713                           
  3714                           opt pagewidth 120
  3715                           
  3716                           	opt lm
  3717                           
  3718                           	processor	16F689
  3719                           clrc	macro
  3720                           	bcf	3,0
  3721                           	endm
  3722                           clrz	macro
  3723                           	bcf	3,2
  3724                           	endm
  3725                           setc	macro
  3726                           	bsf	3,0
  3727                           	endm
  3728                           setz	macro
  3729                           	bsf	3,2
  3730                           	endm
  3731                           skipc	macro
  3732                           	btfss	3,0
  3733                           	endm
  3734                           skipz	macro
  3735                           	btfss	3,2
  3736                           	endm
  3737                           skipnc	macro
  3738                           	btfsc	3,0
  3739                           	endm
  3740                           skipnz	macro
  3741                           	btfsc	3,2
  3742                           	endm
  3743                           indf	equ	0
  3744                           indf0	equ	0
  3745                           pc	equ	2
  3746  03F9                     __ptext426:	;psect for function _Sendbit
  3747                           opt subtitle "HI-TECH Software Omniscient Code Generator (Lite mode) build 49521"
  3748                           
  3749                           opt pagewidth 120
  3750                           
  3751  0010                     	__size_of_Sendbit	equ	__end_of_Sendbit-_Sendbit
  3752                           opt subtitle "HI-TECH Software Omniscient Code Generator (Lite mode) build 49521"
  3753  03F9                     _Sendbit:	
  3754                           opt subtitle "HI-TECH Software Omniscient Code Generator (Lite mode) build 49521"
  3755                           
  3756                           opt pagewidth 120
  3757                           
  3758  03F9  00F0               	movwf	(Sendbit@data)
  3759                           opt subtitle "HI-TECH Software Omniscient Code Generator (Lite mode) build 49521"
  3760  03FA                     l1112:	
  3761                           opt subtitle "HI-TECH Software Omniscient Code Generator (Lite mode) build 49521"
  3762  03FA                     sla: ;# 
  3763                           opt subtitle "HI-TECH Software Omniscient Code Generator (Lite mode) build 49521"
  3764                           
  3765  03FA  1D05               BTFSS 0x5, 0x2 ;# 
  3766                           opt subtitle "HI-TECH Software Omniscient Code Generator (Lite mode) build 49521"
  3767                           
  3768  03FB  2BFA               GOTO sla ;# 
  3769                           opt subtitle "HI-TECH Software Omniscient Code Generator (Lite mode) build 49521"
  3770                           
  3771  03FC                     slb: ;# 
  3772                           opt subtitle "HI-TECH Software Omniscient Code Generator (Lite mode) build 49521"
  3773                           
  3774  03FC  1905               BTFSC 0x5, 0x2 ;# 
  3775                           opt subtitle "HI-TECH Software Omniscient Code Generator (Lite mode) build 49521"
  3776                           
  3777  03FD  2BFC               GOTO slb ;# 
  3778                           opt subtitle "HI-TECH Software Omniscient Code Generator (Lite mode) build 49521"
  3779                           
  3780                           opt pagewidth 120
  3781  03FE  1870               	btfsc	(Sendbit@data),0
  3782  03FF  2C01               	goto	u541
  3783  0400  2C05               	goto	u540
  3784                           opt subtitle "HI-TECH Software Omniscient Code Generator (Lite mode) build 49521"
  3785  0401                     u541:
  3786  0401  1283               	bcf	status, 5	;RP0=0, select bank0
  3787  0402  1303               	bcf	status, 6	;RP1=0, select bank0
  3788  0403  1607               	bsf	(60/8),(60)&7	;volatile
  3789  0404  2C08               	goto	u554
  3790  0405                     u540:
  3791  0405  1283               	bcf	status, 5	;RP0=0, select bank0
  3792  0406  1303               	bcf	status, 6	;RP1=0, select bank0
  3793  0407  1207               	bcf	(60/8),(60)&7	;volatile
  3794  0408                     u554:
  3795                           opt subtitle "HI-TECH Software Omniscient Code Generator (Lite mode) build 49521"
  3796                           
  3797  0408                     l195:	
  3798  0408  0008               	return
  3799                           opt subtitle "HI-TECH Software Omniscient Code Generator (Lite mode) build 49521"
  3800                           
  3801  0409                     	__end_of_Sendbit:
  3802                           opt subtitle "HI-TECH Software Omniscient Code Generator (Lite mode) build 49521"
  3803                           
  3804                           opt pagewidth 120
  3805                           
  3806                           	opt lm
  3807                           
  3808                           	processor	16F689
  3809                           clrc	macro
  3810                           	bcf	3,0
  3811                           	endm
  3812                           clrz	macro
  3813                           	bcf	3,2
  3814                           	endm
  3815                           setc	macro
  3816                           	bsf	3,0
  3817                           	endm
  3818                           setz	macro
  3819                           	bsf	3,2
  3820                           	endm
  3821                           skipc	macro
  3822                           	btfss	3,0
  3823                           	endm
  3824                           skipz	macro
  3825                           	btfss	3,2
  3826                           	endm
  3827                           skipnc	macro
  3828                           	btfsc	3,0
  3829                           	endm
  3830                           skipnz	macro
  3831                           	btfsc	3,2
  3832                           	endm
  3833                           indf	equ	0
  3834                           indf0	equ	0
  3835                           pc	equ	2
  3836                           pcl	equ	2
  3837  0600                     __ptext427:	;psect for function ___lwdiv
  3838                           opt subtitle "HI-TECH Software Omniscient Code Generator (Lite mode) build 49521"
  3839                           
  3840                           opt pagewidth 120
  3841                           
  3842  004D                     	__size_of___lwdiv	equ	__end_of___lwdiv-___lwdiv
  3843                           opt subtitle "HI-TECH Software Omniscient Code Generator (Lite mode) build 49521"
  3844  0600                     ___lwdiv:	
  3845                           opt subtitle "HI-TECH Software Omniscient Code Generator (Lite mode) build 49521"
  3846                           
  3847                           opt pagewidth 120
  3848                           
  3849  0600                     l1114:	
  3850  0600  01F5               	clrf	(___lwdiv@quotient)
  3851  0601  01F6               	clrf	(___lwdiv@quotient+1)
  3852                           opt subtitle "HI-TECH Software Omniscient Code Generator (Lite mode) build 49521"
  3853                           
  3854  0602                     l1116:	
  3855  0602  0871               	movf	(___lwdiv@divisor+1),w
  3856  0603  0470               	iorwf	(___lwdiv@divisor),w
  3857  0604  1903               	skipnz
  3858  0605  2E07               	goto	u561
  3859  0606  2E08               	goto	u560
  3860  0607                     u561:
  3861  0607  2E45               	goto	l1136
  3862  0608                     u560:
  3863                           opt subtitle "HI-TECH Software Omniscient Code Generator (Lite mode) build 49521"
  3864                           
  3865  0608                     l1118:	
  3866  0608  01F7               	clrf	(___lwdiv@counter)
  3867  0609  0AF7               	incf	(___lwdiv@counter),f
  3868                           opt subtitle "HI-TECH Software Omniscient Code Generator (Lite mode) build 49521"
  3869  060A  2E17               	goto	l1124
  3870                           opt subtitle "HI-TECH Software Omniscient Code Generator (Lite mode) build 49521"
  3871  060B                     l328:	
  3872                           opt subtitle "HI-TECH Software Omniscient Code Generator (Lite mode) build 49521"
  3873                           
  3874  060B                     l1120:	
  3875  060B  3001               	movlw	01h
  3876                           opt subtitle "HI-TECH Software Omniscient Code Generator (Lite mode) build 49521"
  3877  060C                     u575:
  3878  060C  1003               	clrc
  3879  060D  0DF0               	rlf	(___lwdiv@divisor),f
  3880  060E  0DF1               	rlf	(___lwdiv@divisor+1),f
  3881  060F  3EFF               	addlw	-1
  3882  0610  1D03               	skipz
  3883  0611  2E0C               	goto	u575
  3884                           opt subtitle "HI-TECH Software Omniscient Code Generator (Lite mode) build 49521"
  3885                           
  3886  0612                     l1122:	
  3887  0612  3001               	movlw	(01h)
  3888  0613  00F4               	movwf	(??___lwdiv+0)+0
  3889  0614  0874               	movf	(??___lwdiv+0)+0,w
  3890  0615  07F7               	addwf	(___lwdiv@counter),f
  3891  0616  2E17               	goto	l1124
  3892                           opt subtitle "HI-TECH Software Omniscient Code Generator (Lite mode) build 49521"
  3893                           
  3894  0617                     l327:	
  3895                           opt subtitle "HI-TECH Software Omniscient Code Generator (Lite mode) build 49521"
  3896                           
  3897  0617                     l1124:	
  3898  0617  1FF1               	btfss	(___lwdiv@divisor+1),(15)&7
  3899  0618  2E1A               	goto	u581
  3900  0619  2E1B               	goto	u580
  3901  061A                     u581:
  3902  061A  2E0B               	goto	l1120
  3903  061B                     u580:
  3904  061B  2E1D               	goto	l1126
  3905                           opt subtitle "HI-TECH Software Omniscient Code Generator (Lite mode) build 49521"
  3906  061C                     l329:	
  3907  061C  2E1D               	goto	l1126
  3908                           opt subtitle "HI-TECH Software Omniscient Code Generator (Lite mode) build 49521"
  3909                           
  3910  061D                     l330:	
  3911                           opt subtitle "HI-TECH Software Omniscient Code Generator (Lite mode) build 49521"
  3912                           
  3913  061D                     l1126:	
  3914  061D  3001               	movlw	01h
  3915                           opt subtitle "HI-TECH Software Omniscient Code Generator (Lite mode) build 49521"
  3916  061E                     u595:
  3917  061E  1003               	clrc
  3918  061F  0DF5               	rlf	(___lwdiv@quotient),f
  3919  0620  0DF6               	rlf	(___lwdiv@quotient+1),f
  3920  0621  3EFF               	addlw	-1
  3921  0622  1D03               	skipz
  3922  0623  2E1E               	goto	u595
  3923                           opt subtitle "HI-TECH Software Omniscient Code Generator (Lite mode) build 49521"
  3924  0624  0871               	movf	(___lwdiv@divisor+1),w
  3925  0625  0273               	subwf	(___lwdiv@dividend+1),w
  3926  0626  1D03               	skipz
  3927  0627  2E2A               	goto	u605
  3928  0628  0870               	movf	(___lwdiv@divisor),w
  3929  0629  0272               	subwf	(___lwdiv@dividend),w
  3930  062A                     u605:
  3931  062A  1C03               	skipc
  3932  062B  2E2D               	goto	u601
  3933  062C  2E2E               	goto	u600
  3934  062D                     u601:
  3935  062D  2E36               	goto	l1132
  3936  062E                     u600:
  3937                           opt subtitle "HI-TECH Software Omniscient Code Generator (Lite mode) build 49521"
  3938                           
  3939  062E                     l1128:	
  3940  062E  0870               	movf	(___lwdiv@divisor),w
  3941  062F  02F2               	subwf	(___lwdiv@dividend),f
  3942  0630  0871               	movf	(___lwdiv@divisor+1),w
  3943  0631  1C03               	skipc
  3944  0632  03F3               	decf	(___lwdiv@dividend+1),f
  3945  0633  02F3               	subwf	(___lwdiv@dividend+1),f
  3946                           opt subtitle "HI-TECH Software Omniscient Code Generator (Lite mode) build 49521"
  3947                           
  3948  0634                     l1130:	
  3949  0634  1475               	bsf	(___lwdiv@quotient)+(0/8),(0)&7
  3950  0635  2E36               	goto	l1132
  3951                           opt subtitle "HI-TECH Software Omniscient Code Generator (Lite mode) build 49521"
  3952                           
  3953  0636                     l331:	
  3954                           opt subtitle "HI-TECH Software Omniscient Code Generator (Lite mode) build 49521"
  3955                           
  3956  0636                     l1132:	
  3957  0636  3001               	movlw	01h
  3958                           opt subtitle "HI-TECH Software Omniscient Code Generator (Lite mode) build 49521"
  3959  0637                     u615:
  3960  0637  1003               	clrc
  3961  0638  0CF1               	rrf	(___lwdiv@divisor+1),f
  3962  0639  0CF0               	rrf	(___lwdiv@divisor),f
  3963  063A  3EFF               	addlw	-1
  3964  063B  1D03               	skipz
  3965  063C  2E37               	goto	u615
  3966                           opt subtitle "HI-TECH Software Omniscient Code Generator (Lite mode) build 49521"
  3967                           
  3968  063D                     l1134:	
  3969  063D  3001               	movlw	low(01h)
  3970  063E  02F7               	subwf	(___lwdiv@counter),f
  3971  063F  1D03               	btfss	status,2
  3972  0640  2E42               	goto	u621
  3973  0641  2E43               	goto	u620
  3974  0642                     u621:
  3975  0642  2E1D               	goto	l1126
  3976  0643                     u620:
  3977  0643  2E45               	goto	l1136
  3978                           opt subtitle "HI-TECH Software Omniscient Code Generator (Lite mode) build 49521"
  3979  0644                     l332:	
  3980  0644  2E45               	goto	l1136
  3981                           opt subtitle "HI-TECH Software Omniscient Code Generator (Lite mode) build 49521"
  3982                           
  3983  0645                     l326:	
  3984                           opt subtitle "HI-TECH Software Omniscient Code Generator (Lite mode) build 49521"
  3985                           
  3986  0645                     l1136:	
  3987  0645  0876               	movf	(___lwdiv@quotient+1),w
  3988  0646  01F1               	clrf	(?___lwdiv+1)
  3989  0647  07F1               	addwf	(?___lwdiv+1)
  3990  0648  0875               	movf	(___lwdiv@quotient),w
  3991  0649  01F0               	clrf	(?___lwdiv)
  3992  064A  07F0               	addwf	(?___lwdiv)
  3993                           opt subtitle "HI-TECH Software Omniscient Code Generator (Lite mode) build 49521"
  3994  064B  2E4C               	goto	l333
  3995                           opt subtitle "HI-TECH Software Omniscient Code Generator (Lite mode) build 49521"
  3996  064C                     l1138:	
  3997                           opt subtitle "HI-TECH Software Omniscient Code Generator (Lite mode) build 49521"
  3998                           
  3999  064C                     l333:	
  4000  064C  0008               	return
  4001                           opt subtitle "HI-TECH Software Omniscient Code Generator (Lite mode) build 49521"
  4002                           
  4003  064D                     	__end_of___lwdiv:
  4004                           opt subtitle "HI-TECH Software Omniscient Code Generator (Lite mode) build 49521"
  4005                           
  4006                           opt pagewidth 120
  4007  0000                     __ptext428:	;psect for function ___lwdiv
  4008                           opt subtitle "HI-TECH Software Omniscient Code Generator (Lite mode) build 49521"
  4009  007E                     	btemp set 07Eh
  4010                           opt subtitle "HI-TECH Software Omniscient Code Generator (Lite mode) build 49521"
  4011                           
  4012                           opt pagewidth 120
  4013  007E                     	wtemp0 set btemp


Data Sizes:
    Strings     0
    Constant    5
    Data        0
    BSS         14
    Persistent  0
    Stack       0

Auto Spaces:
    Space          Size  Autos    Used
    COMMON           14     13      14
    BANK0            80     15      28
    BANK1            80      0       0
    BANK2            80      0       0

Pointer List with Targets:

    ?_GenAddr	unsigned int  size(1) Largest target is 8
		 -> datapacket(BANK0[8]), 

    ?_GetAddr	unsigned int  size(1) Largest target is 8
		 -> datapacket(BANK0[8]), 

    ?___lwdiv	unsigned int  size(1) Largest target is 0

    PairTX@txBuff	PTR unsigned char  size(1) Largest target is 8
		 -> datapacket(BANK0[8]), 

    doPair@txBuff	PTR unsigned char  size(1) Largest target is 8
		 -> datapacket(BANK0[8]), 

    TXData@txBuff	PTR unsigned char  size(1) Largest target is 8
		 -> datapacket(BANK0[8]), 

    GetAddr@txBuff	PTR unsigned char  size(1) Largest target is 8
		 -> datapacket(BANK0[8]), 

    GenAddr@txBuff	PTR unsigned char  size(1) Largest target is 8
		 -> datapacket(BANK0[8]), 


Critical Paths under _main in COMMON

    _main->_getValue
    _main->_doPair
    _getValue->___lwdiv
    _InitRadio->_SendCTRL
    _GetAddr->_EEPROM_getc
    _doPair->_PairTX
    _GenAddr->_EEPROM_putc
    _PairTX->_TXData
    _TXData->_SendFSK
    _TXData->_SendManFSK
    _StartTX->_SendCTRL
    _SendFSK->_Sendbit
    _SendManFSK->_Sendbit
    _StopTX->_SendCTRL

Critical Paths under _main in BANK0

    _main->_doPair

Critical Paths under _main in BANK1

    None.

Critical Paths under _main in BANK2

    None.

Call Graph Tables:

 ---------------------------------------------------------------------------------
 (Depth) Function   	        Calls       Base Space   Used Autos Params    Refs
 ---------------------------------------------------------------------------------
 (0) _main                                                 5     5      0    1942
                                             10 BANK0      5     5      0
                _ConfigureOscillator
                            _InitApp
                          _InitRadio
                            _GetAddr
                           _getValue
                             _TXData
                             _doPair
 ---------------------------------------------------------------------------------
 (1) _getValue                                             5     5      0     366
                                              8 COMMON     5     5      0
                            _readDHT
                            ___lwdiv
 ---------------------------------------------------------------------------------
 (2) _readDHT                                              4     4      0     158
                                              0 COMMON     4     4      0
 ---------------------------------------------------------------------------------
 (1) _ConfigureOscillator                                  1     1      0      22
                                              0 COMMON     1     1      0
 ---------------------------------------------------------------------------------
 (1) _InitApp                                              0     0      0       0
 ---------------------------------------------------------------------------------
 (1) _InitRadio                                            0     0      0      46
                           _SendCTRL
 ---------------------------------------------------------------------------------
 (1) _GetAddr                                              2     2      0      78
                                              1 COMMON     2     2      0
                        _EEPROM_getc
 ---------------------------------------------------------------------------------
 (1) _doPair                                              11     6      5     927
                                             12 COMMON     1     1      0
                                              0 BANK0     10     5      5
                            _GenAddr
                             _PairTX
 ---------------------------------------------------------------------------------
 (2) _GenAddr                                              3     2      1     211
                                              4 COMMON     3     2      1
                        _EEPROM_putc
 ---------------------------------------------------------------------------------
 (3) _EEPROM_putc                                          4     3      1      67
                                              0 COMMON     4     3      1
 ---------------------------------------------------------------------------------
 (2) _EEPROM_getc                                          1     1      0      22
                                              0 COMMON     1     1      0
 ---------------------------------------------------------------------------------
 (2) _PairTX                                               5     5      0     430
                                              7 COMMON     5     5      0
                             _TXData
 ---------------------------------------------------------------------------------
 (3) _TXData                                               3     3      0     318
                                              4 COMMON     3     3      0
                            _StartTX
                            _SendFSK
                         _SendManFSK
                            _WaitFSK
                             _StopTX
 ---------------------------------------------------------------------------------
 (4) _StartTX                                              0     0      0      46
                           _SendCTRL
 ---------------------------------------------------------------------------------
 (4) _SendFSK                                              3     3      0      68
                                              1 COMMON     3     3      0
                            _Sendbit
 ---------------------------------------------------------------------------------
 (4) _SendManFSK                                           3     3      0      68
                                              1 COMMON     3     3      0
                            _Sendbit
 ---------------------------------------------------------------------------------
 (4) _WaitFSK                                              0     0      0       0
 ---------------------------------------------------------------------------------
 (4) _StopTX                                               0     0      0      46
                           _SendCTRL
 ---------------------------------------------------------------------------------
 (5) _SendCTRL                                             4     2      2      46
                                              0 COMMON     4     2      2
 ---------------------------------------------------------------------------------
 (5) _Sendbit                                              1     1      0      22
                                              0 COMMON     1     1      0
 ---------------------------------------------------------------------------------
 (2) ___lwdiv                                              8     4      4     162
                                              0 COMMON     8     4      4
 ---------------------------------------------------------------------------------
 Estimated maximum stack depth 5
 ---------------------------------------------------------------------------------

 Call Graph Graphs:

 _main (ROOT)
   _ConfigureOscillator
   _InitApp
   _InitRadio
     _SendCTRL
   _GetAddr
     _EEPROM_getc
   _getValue
     _readDHT
     ___lwdiv
   _TXData
     _StartTX
       _SendCTRL
     _SendFSK
       _Sendbit
     _SendManFSK
       _Sendbit
     _WaitFSK
     _StopTX
       _SendCTRL
   _doPair
     _GenAddr
       _EEPROM_putc
     _PairTX
       _TXData
         _StartTX
           _SendCTRL
         _SendFSK
           _Sendbit
         _SendManFSK
           _Sendbit
         _WaitFSK
         _StopTX
           _SendCTRL

 Address spaces:
Name               Size   Autos  Total    Cost      Usage
BITCOMMON            E      0       0       0        0.0%
EEDATA             100      0       0       0        0.0%
NULL                 0      0       0       0        0.0%
CODE                 0      0       0       0        0.0%
COMMON               E      D       E       1      100.0%
BITSFR0              0      0       0       1        0.0%
SFR0                 0      0       0       1        0.0%
BITSFR1              0      0       0       2        0.0%
SFR1                 0      0       0       2        0.0%
STACK                0      0       5       2        0.0%
BANK0               50      F      1C       3       35.0%
BITBANK1            50      0       0       4        0.0%
BITSFR3              0      0       0       4        0.0%
SFR3                 0      0       0       4        0.0%
BANK1               50      0       0       5        0.0%
BITSFR2              0      0       0       5        0.0%
SFR2                 0      0       0       5        0.0%
BITBANK2            50      0       0       6        0.0%
BANK2               50      0       0       7        0.0%
ABS                  0      0      2A       8        0.0%
BITBANK0            50      0       0       9        0.0%
DATA                 0      0      2F      10        0.0%


Microchip Technology PIC Macro Assembler V1.12 build 49521 
Symbol Table                                                                                   Wed Oct 08 16:15:03 2014

                           pc 0002                            l40 0742                            l41 0752  
                          l50 07FD                            l42 076C                            l51 07FE  
                          l43 0786                            l60 06DC                            l52 07FE  
                          l44 0787                            l61 06E5                            l37 05FF  
                          l45 07A7                            l62 0729                            l46 07FC  
                          l63 06F3                            l55 06D0                            l47 07BB  
                          l64 071E                            l56 06D0                            l48 07BD  
                          l65 06FB                            l57 06D7                            l49 07EF  
                          l66 06FB                            l58 06D8                            l67 0701  
                          l59 06D8                            l68 0713                            l69 0729  
                          fsr 0004                            sla 03FA                            slb 03FC  
                          wla 03C0                            wlb 03C2                           l201 04AF  
                         l202 04AE                           l210 044C                           l203 04B5  
                         l204 04BB                           l213 03F4                           l150 05B1  
                         l142 04F7                           l214 03F8                           l151 05B7  
                         l207 03DA                           l143 0513                           l215 03F8  
                         l330 061D                           l154 06B9                           l146 0430  
                         l162 0545                           l331 0636                           l171 048B  
                         l332 0644                           l172 0477                           l180 04C2  
                         l333 064C                           l173 047D                           l181 04CF  
                         l165 03CC                           l149 059C                           l157 0554  
                         l326 0645                           l174 047E                           l182 04D8  
                         l190 0461                           l158 0573                           l327 0617  
                         l175 0493                           l183 04E4                           l191 046D  
                         l159 057D                           l328 060B                           l176 0494  
                         l168 03E9                           l184 04E4                           l192 046D  
                         l329 061C                           l195 0408                           l179 04DB  
                         l187 0464                           l188 0453                           l189 045C  
                         l198 03C4                           _RA0 0028                           _RB4 0034  
                         _RC3 003B                           _RC4 003C                           _RB6 0036  
                         _RC5 003D                           _RB7 0037                           _RC6 003E  
                         u600 062E                           u601 062D                           u530 03EF  
                         u620 0643                           u540 0405                           u700 0728  
                         u621 0642                           u605 062A                           u541 0401  
                         u701 0727                           u710 04B5                           u630 06D6  
                         u615 0637                           u711 04B4                           u631 06D5  
                         u560 0608                           u720 0457                           u800 059A  
                         u640 06DC                           u561 0607                           u721 0456  
                         u801 0599                           u641 06DB                           u554 0408  
                         u730 046C                           u810 05B0                           u650 06E3  
                         u731 046B                           u811 05AF                           u651 06E2  
                         u580 061B                           u740 04C6                           u820 0552  
                         u660 06F1                           u900 0785                           u581 061A  
                         u741 04C5                           u821 0551                           u661 06F0  
                         u901 0784                           u750 04E3                           u830 0572  
                         u670 0701                           u910 07A5                           u575 060C  
                         u751 04E2                           u831 0571                           u671 0700  
                         u911 07A4                           u760 047B                           u840 0674  
                         u680 070D                           u920 07B6                           u761 047A  
                         u681 070C                           u921 07B5                           u850 068C  
                         u690 071D                           u930 07C3                           u595 061E  
                         u691 071C                           u931 07C2                           u780 0493  
                         u860 06A4                           u940 07FB                           u781 0492  
                         u845 066F                           u941 07FA                           u790 04F4  
                         u870 0740                           u775 0484                           u855 0687  
                         u871 073F                           u880 0751                           u865 069F  
                         u881 0750                           u890 076A                           u891 0769  
                         u957 0772                           u967 07AB                           u977 06C4  
                         u987 06CD                           u997 0562                           fsr0 0004  
                         indf 0000                          l1100 044B                          l1110 03C0  
                        l1102 03CE                          l1120 060B                          l1112 03FA  
                        l1200 045C                          l1104 03D2                          l1130 0634  
                        l1122 0612                          l1114 0600                          l1210 04CF  
                        l1202 0461                          l1106 03D5                          l1132 0636  
                        l1124 0617                          l1116 0602                          l1220 0475  
                        l1212 04D8                          l1204 0464                          l1300 056C  
                        l1108 03DA                          l1140 06BA                          l1134 063D  
                        l1126 061D                          l1118 0608                          l1222 047B  
                        l1214 04DB                          l1206 04BD                          l1302 0573  
                        l1310 0659                          l1150 06E5                          l1142 06C0  
                        l1230 05BB                          l1128 062E                          l1136 0645  
                        l1224 0483                          l1216 046E                          l1208 04C6  
                        l1304 057A                          l1320 06B5                          l1312 0662  
                        l1080 0435                          l1072 03EB                          l1160 06F9  
                        l1152 06EA                          l1144 06C8                          l1240 05EF  
                        l1232 05CB                          l1138 064C                          l1226 048B  
                        l1218 0472                          l1250 04FD                          l1314 067E  
                        l1306 064E                          l1242 0514                          l1090 0443  
                        l1082 0439                          l1074 03EF                          l1162 0707  
                        l1170 071E                          l1154 06EB                          l1146 06DD  
                        l1234 05DE                          l1330 0741                          l1322 072A  
                        PORTC 0007                          l1260 057F                          l1180 049C  
                        l1252 0507                          l1244 04E6                          l1316 0696  
                        l1308 0654                          l1092 0446                          l1084 043B  
                        l1076 03F4                          l1172 0722                          l1164 070D  
                        l1156 06F2                          l1148 06E4                          l1236 05E5  
                        l1228 05B8                          l1340 0756                          l1332 0742  
                        l1324 072E                          l1270 0593                          l1262 0582  
                        l1190 04A9                          l1182 049F                          l1254 0513  
                        l1246 04F0                          l1318 06AE                          l1174 041B  
                        l1094 0447                          l1086 043D                          l1078 0431  
                        l1166 0713                          l1158 06F3                          l1238 05EA  
                        l1350 0779                          l1342 0763                          l1334 0747  
                        l1326 0737                          l1256 03C5                          l1272 059B  
                        l1280 05B1                          l1264 0587                          l1192 04AA  
                        l1184 04A4                          l1248 04F4                          l1176 0430  
                        l1096 0448                          l1088 0440                          l1168 0717  
                        l1360 0791                          l1352 077F                          l1344 0764  
                        l1336 074B                          l1328 073A                          l1258 03DB  
                        l1282 05B4                          l1274 059C                          l1266 058B  
                        l1290 0553                          l1194 04AC                          l1186 04A5  
                        l1178 0496                          l1098 0449                          l1370 07A6  
                        l1362 0795                          l1346 076B                          l1354 0787  
                        l1338 0752                          l1196 044E                          l1276 05A6  
                        l1268 058F                          l1292 0554                          l1284 0547  
                        l1188 04A7                          l1380 07C3                          l1372 07A7  
                        l1364 0798                          l1356 078B                          l1348 076C  
                        l1198 0457                          l1278 05AA                          l1294 0558  
                        l1286 054B                          l1390 07F5                          l1382 07C7  
                        l1374 07B0                          l1366 079C                          l1358 078E  
                        l1296 055C                          l1288 054C                          l1384 07E7  
                        l1376 07B6                          l1368 079F                          l1298 0568  
                        l1386 07EA                          l1378 07BD                          l1388 07EF  
                        u1007 0584                          _mIpu 0008                          _gcnt 007D  
                        _main 072A                          btemp 007E                          start 0000  
             __end_of_GenAddr 0514                 __CFG_IESO$OFF 0000               __end_of_GetAddr 0431  
             __end_of_InitApp 044D                  main@debounce 002D               __end_of_SendFSK 046E  
             __end_of_WaitFSK 03C5               __end_of_Sendbit 0409               __end_of_StartTX 03CD  
                       ?_main 0070                         _EEADR 010D                 __CFG_WDTE$OFF 0000  
                       _ANSEL 011E                         _T1CON 0010               __end_of___lwdiv 064D  
                       _TMR1H 000F                         _TMR1L 000E                         _TRISA 0085  
                       _TRISB 0086                         _TRISC 0087                         _WPUB4 08AC  
         _ConfigureOscillator 03EA                    SendFSK@cnt 0073                 __CFG_PWRTE$ON 0000  
              __CFG_FCMEN$OFF 0000               __end_of_readDHT 072A                         _mType 000C  
              __CFG_BOREN$OFF 0000                         pclath 000A                         status 0003  
                       wtemp0 007E          ?_ConfigureOscillator 0070          __size_of_EEPROM_getc 000E  
             __initialization 0409          __size_of_EEPROM_putc 0027                  __end_of_mIpu 000C  
                __end_of_main 0800              __end_of_SendCTRL 0495                        ??_main 002A  
                      DHTexit 0707                        DHTloop 0703                    _SendManFSK 04BC  
                PairTX@txBuff 007B               EEPROM_putc@data 0070                        _EEDATA 010C  
                      _EECON2 018D                 GetAddr@txBuff 0072                        _ANSELH 011F  
                   ??_GenAddr 0075                        _INTCON 000B                     ??_GetAddr 0071  
                      _OSCCON 008F            __size_of_InitRadio 0032                        _TRISC3 043B  
                 SendCTRL@cnt 0073                        _TXData 057E                     ??_InitApp 0070  
       ??_ConfigureOscillator 0070                   SendFSK@data 0072                     ??_SendFSK 0071  
                      _PairTX 0546                     ??_WaitFSK 0070                     ??_Sendbit 0070  
            __end_of_getValue 0600                        _nRABPU 040F                        _StopTX 03DB  
                   ??_StartTX 0074        EEPROM_putc@INTCON_SAVE 0073                        _doPair 064D  
    ConfigureOscillator@speed 0070                     ??___lwdiv 0074                     ??_readDHT 0070  
     __end_of__initialization 0417                __pcstackCOMMON 0070                 __end_of_mType 000D  
           __end_of_InitRadio 0546                   Sendbit@data 0070                   ?_SendManFSK 0070  
                  __pbssBANK0 002F                     ?_SendCTRL 0070                       ?_TXData 0070  
                  _datapacket 0034                       ?_PairTX 0070                    __pmaintext 072A  
                     ?_StopTX 0070                       ?_doPair 0020                       _DHTData 002F  
                   ?_getValue 0070            EEPROM_putc@address 0072                    __stringtab 0002  
                     _GenAddr 04E5                       _GetAddr 041A                    ??_SendCTRL 0072  
                     _InitApp 0431               __size_of_TXData 003A                       _SendFSK 044D  
                     _WaitFSK 03C0                       _Sendbit 03F9               __size_of_PairTX 0038  
                     _StartTX 03C5               __size_of_StopTX 000F           __size_of_SendManFSK 0029  
             __size_of_doPair 006D                       ___lwdiv 0600                       _readDHT 06BA  
                  ??_getValue 0078                     TXData@cnt 0076                       main@cnt 002E  
        end_of_initialization 0417                 ??_EEPROM_getc 0070                 ??_EEPROM_putc 0071  
 __end_of_ConfigureOscillator 03F9                  TXData@txBuff 0075                     PairTX@cnt 007A  
              __end_of_TXData 05B8                SendCTRL@tosend 0070                __end_of_PairTX 057E  
         __end_of_EEPROM_getc 03DB           __end_of_EEPROM_putc 04BC                __end_of_StopTX 03EA  
              __end_of_doPair 06BA           start_initialization 0409                     _InitRadio 0514  
                ??_SendManFSK 0071                  doPair@txBuff 007C                      ??_TXData 0074  
                    ??_PairTX 0077             __size_of_SendCTRL 0027                      ??_StopTX 0074  
                    ??_doPair 0025            __end_of_SendManFSK 04E5                   __pbssCOMMON 007D  
               __pcstackBANK0 0020                    ?_InitRadio 0070                      ?_GenAddr 0074  
           __size_of_getValue 0048                      ?_GetAddr 0070                   _EEPROM_getc 03CD  
                    ?_InitApp 0070                   _EEPROM_putc 0495                      ?_SendFSK 0070  
                    ?_WaitFSK 0070              ___lwdiv@dividend 0072                      ?_Sendbit 0070  
                    ?_StartTX 0070                     __ptext410 03EA                     __ptext411 0431  
                   __ptext420 03C5                     __ptext412 0514                     __ptext421 044D  
                   __ptext413 041A                     __ptext422 04BC                     __ptext414 064D  
                   __ptext423 03C0                     __ptext415 04E5                     __ptext424 03DB  
                   __ptext416 0495                     __ptext408 05B8                     __ptext425 046E  
                   __ptext417 03CD                     __ptext409 06BA                     __ptext426 03F9  
                   __ptext418 0546                     __ptext427 0600                     __ptext419 057E  
                   __ptext428 0000                      ?___lwdiv 0070                     __pstrings 0002  
                    ?_readDHT 0070                     doPair@ipu 0021              ___lwdiv@quotient 0075  
                    _PIR2bits 000D                   GenAddr@type 0074                   __stringbase 0007  
                 ??_InitRadio 0074                   doPair@mType 0020              __size_of_GenAddr 002F  
            __size_of_GetAddr 0017                      _SendCTRL 046E                    _EECON1bits 018C  
            __size_of_InitApp 001C              __size_of_SendFSK 0021            EEPROM_getc@address 0070  
            __size_of_WaitFSK 0005              __size_of_Sendbit 0010              __size_of_StartTX 0008  
            __size_of___lwdiv 004D            __end_of__stringtab 0008              __size_of_readDHT 0070  
             ___lwdiv@divisor 0070               ___lwdiv@counter 0077                      _getValue 05B8  
               __size_of_main 00D6  __size_of_ConfigureOscillator 000F                      readDHT@i 0072  
                    readDHT@k 0073                SendManFSK@data 0072                  ?_EEPROM_getc 0070  
                ?_EEPROM_putc 0070                     stringcode 0002                  getValue@Humi 007B  
               SendManFSK@cnt 0073                      stringdir 0002                      stringtab 0002  
               GenAddr@txBuff 0076             __CFG_FOSC$INTRCIO 0000  
